ARM GAS  C:\Users\GRACEK~1\AppData\Local\Temp\ccLkP6UE.s 			page 1


   1              		.syntax unified
   2              		.cpu cortex-m3
   3              		.fpu softvfp
   4              		.eabi_attribute 20, 1
   5              		.eabi_attribute 21, 1
   6              		.eabi_attribute 23, 3
   7              		.eabi_attribute 24, 1
   8              		.eabi_attribute 25, 1
   9              		.eabi_attribute 26, 1
  10              		.eabi_attribute 30, 2
  11              		.eabi_attribute 34, 1
  12              		.eabi_attribute 18, 4
  13              		.thumb
  14              		.file	"gpt.c"
  15              		.text
  16              	.Ltext0:
  17              		.cfi_sections	.debug_frame
  18              		.section	.text.gptInit,"ax",%progbits
  19              		.align	2
  20              		.p2align 4,,15
  21              		.global	gptInit
  22              		.thumb
  23              		.thumb_func
  24              		.type	gptInit, %function
  25              	gptInit:
  26              	.LFB63:
  27              		.file 1 "../ChibiOS_2.6.0/os/hal/src/gpt.c"
  28              		.loc 1 68 0
  29              		.cfi_startproc
  30              		@ args = 0, pretend = 0, frame = 0
  31              		@ frame_needed = 0, uses_anonymous_args = 0
  32              		@ link register save eliminated.
  33              		.loc 1 71 0
  34              		.loc 1 70 0
  35 0000 FFF7FEBF 		b	gpt_lld_init
  36              	.LVL0:
  37              		.cfi_endproc
  38              	.LFE63:
  39              		.size	gptInit, .-gptInit
  40 0004 AFF30080 		.section	.text.gptObjectInit,"ax",%progbits
  40      AFF30080 
  40      AFF30080 
  41              		.align	2
  42              		.p2align 4,,15
  43              		.global	gptObjectInit
  44              		.thumb
  45              		.thumb_func
  46              		.type	gptObjectInit, %function
  47              	gptObjectInit:
  48              	.LFB64:
  49              		.loc 1 80 0
  50              		.cfi_startproc
  51              		@ args = 0, pretend = 0, frame = 0
  52              		@ frame_needed = 0, uses_anonymous_args = 0
  53              		@ link register save eliminated.
  54              	.LVL1:
  55              		.loc 1 82 0
ARM GAS  C:\Users\GRACEK~1\AppData\Local\Temp\ccLkP6UE.s 			page 2


  56 0000 0123     		movs	r3, #1
  57 0002 0370     		strb	r3, [r0, #0]
  58              		.loc 1 83 0
  59 0004 0023     		movs	r3, #0
  60 0006 4360     		str	r3, [r0, #4]
  61 0008 7047     		bx	lr
  62              		.cfi_endproc
  63              	.LFE64:
  64              		.size	gptObjectInit, .-gptObjectInit
  65 000a 00BFAFF3 		.section	.text.gptStart,"ax",%progbits
  65      0080
  66              		.align	2
  67              		.p2align 4,,15
  68              		.global	gptStart
  69              		.thumb
  70              		.thumb_func
  71              		.type	gptStart, %function
  72              	gptStart:
  73              	.LFB65:
  74              		.loc 1 94 0
  75              		.cfi_startproc
  76              		@ args = 0, pretend = 0, frame = 0
  77              		@ frame_needed = 0, uses_anonymous_args = 0
  78              	.LVL2:
  79 0000 10B5     		push	{r4, lr}
  80              	.LCFI0:
  81              		.cfi_def_cfa_offset 8
  82              		.cfi_offset 4, -8
  83              		.cfi_offset 14, -4
  84              	.LBB2:
  85              		.loc 1 98 0
  86 0002 2023     		movs	r3, #32
  87              	.LVL3:
  88              	.LBE2:
  89              		.loc 1 94 0
  90 0004 0446     		mov	r4, r0
  91              	.LBB3:
  92              		.loc 1 98 0
  93              	@ 98 "../ChibiOS_2.6.0/os/hal/src/gpt.c" 1
  94 0006 83F31188 		msr     BASEPRI, r3
  95              	@ 0 "" 2
  96              	.LVL4:
  97              		.thumb
  98              	.LBE3:
  99              		.loc 1 101 0
 100 000a 4160     		str	r1, [r0, #4]
 101              		.loc 1 102 0
 102 000c FFF7FEFF 		bl	gpt_lld_start
 103              	.LVL5:
 104              		.loc 1 103 0
 105 0010 0223     		movs	r3, #2
 106 0012 2370     		strb	r3, [r4, #0]
 107              	.LBB4:
 108              		.loc 1 104 0
 109 0014 0023     		movs	r3, #0
 110              	.LVL6:
 111              	@ 104 "../ChibiOS_2.6.0/os/hal/src/gpt.c" 1
ARM GAS  C:\Users\GRACEK~1\AppData\Local\Temp\ccLkP6UE.s 			page 3


 112 0016 83F31188 		msr     BASEPRI, r3
 113              	@ 0 "" 2
 114              	.LVL7:
 115              		.thumb
 116 001a 10BD     		pop	{r4, pc}
 117              	.LBE4:
 118              		.cfi_endproc
 119              	.LFE65:
 120              		.size	gptStart, .-gptStart
 121 001c AFF30080 		.section	.text.gptStop,"ax",%progbits
 122              		.align	2
 123              		.p2align 4,,15
 124              		.global	gptStop
 125              		.thumb
 126              		.thumb_func
 127              		.type	gptStop, %function
 128              	gptStop:
 129              	.LFB66:
 130              		.loc 1 114 0
 131              		.cfi_startproc
 132              		@ args = 0, pretend = 0, frame = 0
 133              		@ frame_needed = 0, uses_anonymous_args = 0
 134              	.LVL8:
 135 0000 10B5     		push	{r4, lr}
 136              	.LCFI1:
 137              		.cfi_def_cfa_offset 8
 138              		.cfi_offset 4, -8
 139              		.cfi_offset 14, -4
 140              	.LBB5:
 141              		.loc 1 118 0
 142 0002 2023     		movs	r3, #32
 143              	.LVL9:
 144              	.LBE5:
 145              		.loc 1 114 0
 146 0004 0446     		mov	r4, r0
 147              	.LBB6:
 148              		.loc 1 118 0
 149              	@ 118 "../ChibiOS_2.6.0/os/hal/src/gpt.c" 1
 150 0006 83F31188 		msr     BASEPRI, r3
 151              	@ 0 "" 2
 152              	.LVL10:
 153              		.thumb
 154              	.LBE6:
 155              		.loc 1 121 0
 156 000a FFF7FEFF 		bl	gpt_lld_stop
 157              	.LVL11:
 158              		.loc 1 122 0
 159 000e 0123     		movs	r3, #1
 160 0010 2370     		strb	r3, [r4, #0]
 161              	.LBB7:
 162              		.loc 1 123 0
 163 0012 0023     		movs	r3, #0
 164              	.LVL12:
 165              	@ 123 "../ChibiOS_2.6.0/os/hal/src/gpt.c" 1
 166 0014 83F31188 		msr     BASEPRI, r3
 167              	@ 0 "" 2
 168              	.LVL13:
ARM GAS  C:\Users\GRACEK~1\AppData\Local\Temp\ccLkP6UE.s 			page 4


 169              		.thumb
 170 0018 10BD     		pop	{r4, pc}
 171              	.LBE7:
 172              		.cfi_endproc
 173              	.LFE66:
 174              		.size	gptStop, .-gptStop
 175 001a 00BFAFF3 		.section	.text.gptChangeInterval,"ax",%progbits
 175      0080
 176              		.align	2
 177              		.p2align 4,,15
 178              		.global	gptChangeInterval
 179              		.thumb
 180              		.thumb_func
 181              		.type	gptChangeInterval, %function
 182              	gptChangeInterval:
 183              	.LFB67:
 184              		.loc 1 139 0
 185              		.cfi_startproc
 186              		@ args = 0, pretend = 0, frame = 0
 187              		@ frame_needed = 0, uses_anonymous_args = 0
 188              		@ link register save eliminated.
 189              	.LVL14:
 190              	.LBB8:
 191              		.loc 1 143 0
 192 0000 2023     		movs	r3, #32
 193              	.LVL15:
 194              	@ 143 "../ChibiOS_2.6.0/os/hal/src/gpt.c" 1
 195 0002 83F31188 		msr     BASEPRI, r3
 196              	@ 0 "" 2
 197              	.LVL16:
 198              		.thumb
 199              	.LBE8:
 200              		.loc 1 146 0
 201 0006 C368     		ldr	r3, [r0, #12]
 202              	.LVL17:
 203 0008 0139     		subs	r1, r1, #1
 204              	.LVL18:
 205 000a 89B2     		uxth	r1, r1
 206 000c D962     		str	r1, [r3, #44]
 207              	.LBB9:
 208              		.loc 1 147 0
 209 000e 0023     		movs	r3, #0
 210              	.LVL19:
 211              	@ 147 "../ChibiOS_2.6.0/os/hal/src/gpt.c" 1
 212 0010 83F31188 		msr     BASEPRI, r3
 213              	@ 0 "" 2
 214              	.LVL20:
 215              		.thumb
 216 0014 7047     		bx	lr
 217              	.LBE9:
 218              		.cfi_endproc
 219              	.LFE67:
 220              		.size	gptChangeInterval, .-gptChangeInterval
 221 0016 00BFAFF3 		.section	.text.gptStartContinuousI,"ax",%progbits
 221      0080AFF3 
 221      0080
 222              		.align	2
ARM GAS  C:\Users\GRACEK~1\AppData\Local\Temp\ccLkP6UE.s 			page 5


 223              		.p2align 4,,15
 224              		.global	gptStartContinuousI
 225              		.thumb
 226              		.thumb_func
 227              		.type	gptStartContinuousI, %function
 228              	gptStartContinuousI:
 229              	.LFB69:
 230              		.loc 1 173 0
 231              		.cfi_startproc
 232              		@ args = 0, pretend = 0, frame = 0
 233              		@ frame_needed = 0, uses_anonymous_args = 0
 234              		@ link register save eliminated.
 235              	.LVL21:
 236              		.loc 1 180 0
 237 0000 0323     		movs	r3, #3
 238 0002 0370     		strb	r3, [r0, #0]
 239              		.loc 1 182 0
 240              		.loc 1 181 0
 241 0004 FFF7FEBF 		b	gpt_lld_start_timer
 242              	.LVL22:
 243              		.cfi_endproc
 244              	.LFE69:
 245              		.size	gptStartContinuousI, .-gptStartContinuousI
 246 0008 AFF30080 		.section	.text.gptStartContinuous,"ax",%progbits
 246      AFF30080 
 247              		.align	2
 248              		.p2align 4,,15
 249              		.global	gptStartContinuous
 250              		.thumb
 251              		.thumb_func
 252              		.type	gptStartContinuous, %function
 253              	gptStartContinuous:
 254              	.LFB68:
 255              		.loc 1 158 0
 256              		.cfi_startproc
 257              		@ args = 0, pretend = 0, frame = 0
 258              		@ frame_needed = 0, uses_anonymous_args = 0
 259              	.LVL23:
 260 0000 08B5     		push	{r3, lr}
 261              	.LCFI2:
 262              		.cfi_def_cfa_offset 8
 263              		.cfi_offset 3, -8
 264              		.cfi_offset 14, -4
 265              	.LBB10:
 266              		.loc 1 160 0
 267 0002 2023     		movs	r3, #32
 268              	.LVL24:
 269              	@ 160 "../ChibiOS_2.6.0/os/hal/src/gpt.c" 1
 270 0004 83F31188 		msr     BASEPRI, r3
 271              	@ 0 "" 2
 272              	.LVL25:
 273              		.thumb
 274              	.LBE10:
 275              		.loc 1 161 0
 276 0008 FFF7FEFF 		bl	gptStartContinuousI
 277              	.LVL26:
 278              	.LBB11:
ARM GAS  C:\Users\GRACEK~1\AppData\Local\Temp\ccLkP6UE.s 			page 6


 279              		.loc 1 162 0
 280 000c 0023     		movs	r3, #0
 281              	.LVL27:
 282              	@ 162 "../ChibiOS_2.6.0/os/hal/src/gpt.c" 1
 283 000e 83F31188 		msr     BASEPRI, r3
 284              	@ 0 "" 2
 285              	.LVL28:
 286              		.thumb
 287 0012 08BD     		pop	{r3, pc}
 288              	.LBE11:
 289              		.cfi_endproc
 290              	.LFE68:
 291              		.size	gptStartContinuous, .-gptStartContinuous
 292 0014 AFF30080 		.section	.text.gptStartOneShotI,"ax",%progbits
 292      AFF30080 
 292      AFF30080 
 293              		.align	2
 294              		.p2align 4,,15
 295              		.global	gptStartOneShotI
 296              		.thumb
 297              		.thumb_func
 298              		.type	gptStartOneShotI, %function
 299              	gptStartOneShotI:
 300              	.LFB71:
 301              		.loc 1 207 0
 302              		.cfi_startproc
 303              		@ args = 0, pretend = 0, frame = 0
 304              		@ frame_needed = 0, uses_anonymous_args = 0
 305              		@ link register save eliminated.
 306              	.LVL29:
 307              		.loc 1 214 0
 308 0000 0423     		movs	r3, #4
 309 0002 0370     		strb	r3, [r0, #0]
 310              		.loc 1 216 0
 311              		.loc 1 215 0
 312 0004 FFF7FEBF 		b	gpt_lld_start_timer
 313              	.LVL30:
 314              		.cfi_endproc
 315              	.LFE71:
 316              		.size	gptStartOneShotI, .-gptStartOneShotI
 317 0008 AFF30080 		.section	.text.gptStartOneShot,"ax",%progbits
 317      AFF30080 
 318              		.align	2
 319              		.p2align 4,,15
 320              		.global	gptStartOneShot
 321              		.thumb
 322              		.thumb_func
 323              		.type	gptStartOneShot, %function
 324              	gptStartOneShot:
 325              	.LFB70:
 326              		.loc 1 192 0
 327              		.cfi_startproc
 328              		@ args = 0, pretend = 0, frame = 0
 329              		@ frame_needed = 0, uses_anonymous_args = 0
 330              	.LVL31:
 331 0000 08B5     		push	{r3, lr}
 332              	.LCFI3:
ARM GAS  C:\Users\GRACEK~1\AppData\Local\Temp\ccLkP6UE.s 			page 7


 333              		.cfi_def_cfa_offset 8
 334              		.cfi_offset 3, -8
 335              		.cfi_offset 14, -4
 336              	.LBB12:
 337              		.loc 1 194 0
 338 0002 2023     		movs	r3, #32
 339              	.LVL32:
 340              	@ 194 "../ChibiOS_2.6.0/os/hal/src/gpt.c" 1
 341 0004 83F31188 		msr     BASEPRI, r3
 342              	@ 0 "" 2
 343              	.LVL33:
 344              		.thumb
 345              	.LBE12:
 346              		.loc 1 195 0
 347 0008 FFF7FEFF 		bl	gptStartOneShotI
 348              	.LVL34:
 349              	.LBB13:
 350              		.loc 1 196 0
 351 000c 0023     		movs	r3, #0
 352              	.LVL35:
 353              	@ 196 "../ChibiOS_2.6.0/os/hal/src/gpt.c" 1
 354 000e 83F31188 		msr     BASEPRI, r3
 355              	@ 0 "" 2
 356              	.LVL36:
 357              		.thumb
 358 0012 08BD     		pop	{r3, pc}
 359              	.LBE13:
 360              		.cfi_endproc
 361              	.LFE70:
 362              		.size	gptStartOneShot, .-gptStartOneShot
 363 0014 AFF30080 		.section	.text.gptStopTimerI,"ax",%progbits
 363      AFF30080 
 363      AFF30080 
 364              		.align	2
 365              		.p2align 4,,15
 366              		.global	gptStopTimerI
 367              		.thumb
 368              		.thumb_func
 369              		.type	gptStopTimerI, %function
 370              	gptStopTimerI:
 371              	.LFB73:
 372              		.loc 1 239 0
 373              		.cfi_startproc
 374              		@ args = 0, pretend = 0, frame = 0
 375              		@ frame_needed = 0, uses_anonymous_args = 0
 376              		@ link register save eliminated.
 377              	.LVL37:
 378              		.loc 1 247 0
 379 0000 0223     		movs	r3, #2
 380 0002 0370     		strb	r3, [r0, #0]
 381              		.loc 1 249 0
 382              		.loc 1 248 0
 383 0004 FFF7FEBF 		b	gpt_lld_stop_timer
 384              	.LVL38:
 385              		.cfi_endproc
 386              	.LFE73:
 387              		.size	gptStopTimerI, .-gptStopTimerI
ARM GAS  C:\Users\GRACEK~1\AppData\Local\Temp\ccLkP6UE.s 			page 8


 388 0008 AFF30080 		.section	.text.gptStopTimer,"ax",%progbits
 388      AFF30080 
 389              		.align	2
 390              		.p2align 4,,15
 391              		.global	gptStopTimer
 392              		.thumb
 393              		.thumb_func
 394              		.type	gptStopTimer, %function
 395              	gptStopTimer:
 396              	.LFB72:
 397              		.loc 1 225 0
 398              		.cfi_startproc
 399              		@ args = 0, pretend = 0, frame = 0
 400              		@ frame_needed = 0, uses_anonymous_args = 0
 401              	.LVL39:
 402 0000 08B5     		push	{r3, lr}
 403              	.LCFI4:
 404              		.cfi_def_cfa_offset 8
 405              		.cfi_offset 3, -8
 406              		.cfi_offset 14, -4
 407              	.LBB14:
 408              		.loc 1 227 0
 409 0002 2023     		movs	r3, #32
 410              	.LVL40:
 411              	@ 227 "../ChibiOS_2.6.0/os/hal/src/gpt.c" 1
 412 0004 83F31188 		msr     BASEPRI, r3
 413              	@ 0 "" 2
 414              	.LVL41:
 415              		.thumb
 416              	.LBE14:
 417              		.loc 1 228 0
 418 0008 FFF7FEFF 		bl	gptStopTimerI
 419              	.LVL42:
 420              	.LBB15:
 421              		.loc 1 229 0
 422 000c 0023     		movs	r3, #0
 423              	.LVL43:
 424              	@ 229 "../ChibiOS_2.6.0/os/hal/src/gpt.c" 1
 425 000e 83F31188 		msr     BASEPRI, r3
 426              	@ 0 "" 2
 427              	.LVL44:
 428              		.thumb
 429 0012 08BD     		pop	{r3, pc}
 430              	.LBE15:
 431              		.cfi_endproc
 432              	.LFE72:
 433              		.size	gptStopTimer, .-gptStopTimer
 434 0014 AFF30080 		.section	.text.gptPolledDelay,"ax",%progbits
 434      AFF30080 
 434      AFF30080 
 435              		.align	2
 436              		.p2align 4,,15
 437              		.global	gptPolledDelay
 438              		.thumb
 439              		.thumb_func
 440              		.type	gptPolledDelay, %function
 441              	gptPolledDelay:
ARM GAS  C:\Users\GRACEK~1\AppData\Local\Temp\ccLkP6UE.s 			page 9


 442              	.LFB74:
 443              		.loc 1 263 0
 444              		.cfi_startproc
 445              		@ args = 0, pretend = 0, frame = 0
 446              		@ frame_needed = 0, uses_anonymous_args = 0
 447              	.LVL45:
 448              		.loc 1 268 0
 449 0000 0423     		movs	r3, #4
 450              		.loc 1 263 0
 451 0002 10B5     		push	{r4, lr}
 452              	.LCFI5:
 453              		.cfi_def_cfa_offset 8
 454              		.cfi_offset 4, -8
 455              		.cfi_offset 14, -4
 456              		.loc 1 268 0
 457 0004 0370     		strb	r3, [r0, #0]
 458              		.loc 1 263 0
 459 0006 0446     		mov	r4, r0
 460              		.loc 1 269 0
 461 0008 FFF7FEFF 		bl	gpt_lld_polled_delay
 462              	.LVL46:
 463              		.loc 1 270 0
 464 000c 0223     		movs	r3, #2
 465 000e 2370     		strb	r3, [r4, #0]
 466 0010 10BD     		pop	{r4, pc}
 467              		.cfi_endproc
 468              	.LFE74:
 469              		.size	gptPolledDelay, .-gptPolledDelay
 470 0012 00BFAFF3 		.text
 470      0080AFF3 
 470      0080AFF3 
 470      0080
 471              	.Letext0:
 472              		.file 2 "c:/program files/pros/toolchain/lib/gcc/../../arm-none-eabi/include/stdint.h"
 473              		.file 3 "../ChibiOS_2.6.0/os/hal/platforms/STM32/stm32.h"
 474              		.file 4 "../ChibiOS_2.6.0/os/hal/include/gpt.h"
 475              		.file 5 "../ChibiOS_2.6.0/os/hal/platforms/STM32/gpt_lld.h"
 476              		.file 6 "../ChibiOS_2.6.0/os/ports/common/ARMCMx/CMSIS/include/core_cm3.h"