ARM GAS  C:\Users\GRACEK~1\AppData\Local\Temp\ccMogxSH.s 			page 1


   1              		.syntax unified
   2              		.cpu cortex-m3
   3              		.fpu softvfp
   4              		.eabi_attribute 20, 1
   5              		.eabi_attribute 21, 1
   6              		.eabi_attribute 23, 3
   7              		.eabi_attribute 24, 1
   8              		.eabi_attribute 25, 1
   9              		.eabi_attribute 26, 1
  10              		.eabi_attribute 30, 2
  11              		.eabi_attribute 34, 1
  12              		.eabi_attribute 18, 4
  13              		.thumb
  14              		.file	"gpt_lld.c"
  15              		.text
  16              	.Ltext0:
  17              		.cfi_sections	.debug_frame
  18              		.section	.text.VectorA4,"ax",%progbits
  19              		.align	2
  20              		.p2align 4,,15
  21              		.global	VectorA4
  22              		.thumb
  23              		.thumb_func
  24              		.type	VectorA4, %function
  25              	VectorA4:
  26              	.LFB64:
  27              		.file 1 "../ChibiOS_2.6.0/os/hal/platforms/STM32/gpt_lld.c"
  28              		.loc 1 170 0
  29              		.cfi_startproc
  30              		@ args = 0, pretend = 0, frame = 0
  31              		@ frame_needed = 0, uses_anonymous_args = 0
  32              	.LVL0:
  33 0000 08B5     		push	{r3, lr}
  34              	.LCFI0:
  35              		.cfi_def_cfa_offset 8
  36              		.cfi_offset 3, -8
  37              		.cfi_offset 14, -4
  38              	.LBB16:
  39              	.LBB17:
  40              		.loc 1 149 0
  41 0002 0A4B     		ldr	r3, .L4
  42 0004 0021     		movs	r1, #0
  43              		.loc 1 150 0
  44 0006 1878     		ldrb	r0, [r3, #0]	@ zero_extendqisi2
  45              		.loc 1 149 0
  46 0008 DA68     		ldr	r2, [r3, #12]
  47              		.loc 1 150 0
  48 000a 0428     		cmp	r0, #4
  49              		.loc 1 149 0
  50 000c 1182     		strh	r1, [r2, #16]	@ movhi
  51              		.loc 1 150 0
  52 000e 04D1     		bne	.L2
  53              		.loc 1 151 0
  54 0010 0220     		movs	r0, #2
  55 0012 1870     		strb	r0, [r3, #0]
  56              	.LVL1:
  57              	.LBB18:
ARM GAS  C:\Users\GRACEK~1\AppData\Local\Temp\ccMogxSH.s 			page 2


  58              	.LBB19:
  59              		.loc 1 734 0
  60 0014 1180     		strh	r1, [r2, #0]	@ movhi
  61              		.loc 1 735 0
  62 0016 1182     		strh	r1, [r2, #16]	@ movhi
  63              		.loc 1 736 0
  64 0018 9181     		strh	r1, [r2, #12]	@ movhi
  65              	.LVL2:
  66              	.L2:
  67              	.LBE19:
  68              	.LBE18:
  69              		.loc 1 154 0
  70 001a 5B68     		ldr	r3, [r3, #4]
  71 001c 0348     		ldr	r0, .L4
  72 001e 5B68     		ldr	r3, [r3, #4]
  73 0020 9847     		blx	r3
  74              	.LVL3:
  75              	.LBE17:
  76              	.LBE16:
  77              		.loc 1 177 0
  78 0022 BDE80840 		pop	{r3, lr}
  79              		.loc 1 176 0
  80 0026 FFF7FEBF 		b	_port_irq_epilogue
  81              	.LVL4:
  82              	.L5:
  83 002a 00BF     		.align	2
  84              	.L4:
  85 002c 00000000 		.word	.LANCHOR0
  86              		.cfi_endproc
  87              	.LFE64:
  88              		.size	VectorA4, .-VectorA4
  89              		.section	.text.VectorB0,"ax",%progbits
  90              		.align	2
  91              		.p2align 4,,15
  92              		.global	VectorB0
  93              		.thumb
  94              		.thumb_func
  95              		.type	VectorB0, %function
  96              	VectorB0:
  97              	.LFB65:
  98              		.loc 1 189 0
  99              		.cfi_startproc
 100              		@ args = 0, pretend = 0, frame = 0
 101              		@ frame_needed = 0, uses_anonymous_args = 0
 102              	.LVL5:
 103 0000 08B5     		push	{r3, lr}
 104              	.LCFI1:
 105              		.cfi_def_cfa_offset 8
 106              		.cfi_offset 3, -8
 107              		.cfi_offset 14, -4
 108              	.LBB20:
 109              	.LBB21:
 110              		.loc 1 149 0
 111 0002 0A4B     		ldr	r3, .L8
 112 0004 0021     		movs	r1, #0
 113              		.loc 1 150 0
 114 0006 1878     		ldrb	r0, [r3, #0]	@ zero_extendqisi2
ARM GAS  C:\Users\GRACEK~1\AppData\Local\Temp\ccMogxSH.s 			page 3


 115              		.loc 1 149 0
 116 0008 DA68     		ldr	r2, [r3, #12]
 117              		.loc 1 150 0
 118 000a 0428     		cmp	r0, #4
 119              		.loc 1 149 0
 120 000c 1182     		strh	r1, [r2, #16]	@ movhi
 121              		.loc 1 150 0
 122 000e 04D1     		bne	.L7
 123              		.loc 1 151 0
 124 0010 0220     		movs	r0, #2
 125 0012 1870     		strb	r0, [r3, #0]
 126              	.LVL6:
 127              	.LBB22:
 128              	.LBB23:
 129              		.loc 1 734 0
 130 0014 1180     		strh	r1, [r2, #0]	@ movhi
 131              		.loc 1 735 0
 132 0016 1182     		strh	r1, [r2, #16]	@ movhi
 133              		.loc 1 736 0
 134 0018 9181     		strh	r1, [r2, #12]	@ movhi
 135              	.LVL7:
 136              	.L7:
 137              	.LBE23:
 138              	.LBE22:
 139              		.loc 1 154 0
 140 001a 5B68     		ldr	r3, [r3, #4]
 141 001c 0348     		ldr	r0, .L8
 142 001e 5B68     		ldr	r3, [r3, #4]
 143 0020 9847     		blx	r3
 144              	.LVL8:
 145              	.LBE21:
 146              	.LBE20:
 147              		.loc 1 196 0
 148 0022 BDE80840 		pop	{r3, lr}
 149              		.loc 1 195 0
 150 0026 FFF7FEBF 		b	_port_irq_epilogue
 151              	.LVL9:
 152              	.L9:
 153 002a 00BF     		.align	2
 154              	.L8:
 155 002c 00000000 		.word	.LANCHOR1
 156              		.cfi_endproc
 157              	.LFE65:
 158              		.size	VectorB0, .-VectorB0
 159              		.section	.text.Vector108,"ax",%progbits
 160              		.align	2
 161              		.p2align 4,,15
 162              		.global	Vector108
 163              		.thumb
 164              		.thumb_func
 165              		.type	Vector108, %function
 166              	Vector108:
 167              	.LFB66:
 168              		.loc 1 246 0
 169              		.cfi_startproc
 170              		@ args = 0, pretend = 0, frame = 0
 171              		@ frame_needed = 0, uses_anonymous_args = 0
ARM GAS  C:\Users\GRACEK~1\AppData\Local\Temp\ccMogxSH.s 			page 4


 172              	.LVL10:
 173 0000 08B5     		push	{r3, lr}
 174              	.LCFI2:
 175              		.cfi_def_cfa_offset 8
 176              		.cfi_offset 3, -8
 177              		.cfi_offset 14, -4
 178              	.LBB24:
 179              	.LBB25:
 180              		.loc 1 149 0
 181 0002 0A4B     		ldr	r3, .L12
 182 0004 0021     		movs	r1, #0
 183              		.loc 1 150 0
 184 0006 1878     		ldrb	r0, [r3, #0]	@ zero_extendqisi2
 185              		.loc 1 149 0
 186 0008 DA68     		ldr	r2, [r3, #12]
 187              		.loc 1 150 0
 188 000a 0428     		cmp	r0, #4
 189              		.loc 1 149 0
 190 000c 1182     		strh	r1, [r2, #16]	@ movhi
 191              		.loc 1 150 0
 192 000e 04D1     		bne	.L11
 193              		.loc 1 151 0
 194 0010 0220     		movs	r0, #2
 195 0012 1870     		strb	r0, [r3, #0]
 196              	.LVL11:
 197              	.LBB26:
 198              	.LBB27:
 199              		.loc 1 734 0
 200 0014 1180     		strh	r1, [r2, #0]	@ movhi
 201              		.loc 1 735 0
 202 0016 1182     		strh	r1, [r2, #16]	@ movhi
 203              		.loc 1 736 0
 204 0018 9181     		strh	r1, [r2, #12]	@ movhi
 205              	.LVL12:
 206              	.L11:
 207              	.LBE27:
 208              	.LBE26:
 209              		.loc 1 154 0
 210 001a 5B68     		ldr	r3, [r3, #4]
 211 001c 0348     		ldr	r0, .L12
 212 001e 5B68     		ldr	r3, [r3, #4]
 213 0020 9847     		blx	r3
 214              	.LVL13:
 215              	.LBE25:
 216              	.LBE24:
 217              		.loc 1 253 0
 218 0022 BDE80840 		pop	{r3, lr}
 219              		.loc 1 252 0
 220 0026 FFF7FEBF 		b	_port_irq_epilogue
 221              	.LVL14:
 222              	.L13:
 223 002a 00BF     		.align	2
 224              	.L12:
 225 002c 00000000 		.word	.LANCHOR2
 226              		.cfi_endproc
 227              	.LFE66:
 228              		.size	Vector108, .-Vector108
ARM GAS  C:\Users\GRACEK~1\AppData\Local\Temp\ccMogxSH.s 			page 5


 229              		.section	.text.gpt_lld_init,"ax",%progbits
 230              		.align	2
 231              		.p2align 4,,15
 232              		.global	gpt_lld_init
 233              		.thumb
 234              		.thumb_func
 235              		.type	gpt_lld_init, %function
 236              	gpt_lld_init:
 237              	.LFB67:
 238              		.loc 1 398 0
 239              		.cfi_startproc
 240              		@ args = 0, pretend = 0, frame = 0
 241              		@ frame_needed = 0, uses_anonymous_args = 0
 242 0000 08B5     		push	{r3, lr}
 243              	.LCFI3:
 244              		.cfi_def_cfa_offset 8
 245              		.cfi_offset 3, -8
 246              		.cfi_offset 14, -4
 247              		.loc 1 402 0
 248 0002 40F20003 		movw	r3, #:lower16:.LANCHOR0
 249 0006 C0F20003 		movt	r3, #:upper16:.LANCHOR0
 250 000a 4FF43052 		mov	r2, #11264
 251 000e C4F20102 		movt	r2, 16385
 252              		.loc 1 403 0
 253 0012 1846     		mov	r0, r3
 254              		.loc 1 402 0
 255 0014 DA60     		str	r2, [r3, #12]
 256              		.loc 1 403 0
 257 0016 FFF7FEFF 		bl	gptObjectInit
 258              	.LVL15:
 259              		.loc 1 408 0
 260 001a 40F20003 		movw	r3, #:lower16:.LANCHOR1
 261 001e C0F20003 		movt	r3, #:upper16:.LANCHOR1
 262              		.loc 1 409 0
 263 0022 1846     		mov	r0, r3
 264              		.loc 1 408 0
 265 0024 4FF08042 		mov	r2, #1073741824
 266 0028 DA60     		str	r2, [r3, #12]
 267              		.loc 1 409 0
 268 002a FFF7FEFF 		bl	gptObjectInit
 269              	.LVL16:
 270              		.loc 1 426 0
 271 002e 40F20003 		movw	r3, #:lower16:.LANCHOR2
 272 0032 C0F20003 		movt	r3, #:upper16:.LANCHOR2
 273 0036 4FF44062 		mov	r2, #3072
 274 003a C4F20002 		movt	r2, 16384
 275              		.loc 1 427 0
 276 003e 1846     		mov	r0, r3
 277              		.loc 1 426 0
 278 0040 DA60     		str	r2, [r3, #12]
 279              		.loc 1 471 0
 280 0042 BDE80840 		pop	{r3, lr}
 281              		.loc 1 427 0
 282 0046 FFF7FEBF 		b	gptObjectInit
 283              	.LVL17:
 284              		.cfi_endproc
 285              	.LFE67:
ARM GAS  C:\Users\GRACEK~1\AppData\Local\Temp\ccMogxSH.s 			page 6


 286              		.size	gpt_lld_init, .-gpt_lld_init
 287 004a 00BFAFF3 		.section	.text.gpt_lld_start,"ax",%progbits
 287      0080
 288              		.align	2
 289              		.p2align 4,,15
 290              		.global	gpt_lld_start
 291              		.thumb
 292              		.thumb_func
 293              		.type	gpt_lld_start, %function
 294              	gpt_lld_start:
 295              	.LFB68:
 296              		.loc 1 480 0
 297              		.cfi_startproc
 298              		@ args = 0, pretend = 0, frame = 0
 299              		@ frame_needed = 0, uses_anonymous_args = 0
 300              	.LVL18:
 301              		.loc 1 483 0
 302 0000 0378     		ldrb	r3, [r0, #0]	@ zero_extendqisi2
 303              		.loc 1 480 0
 304 0002 10B5     		push	{r4, lr}
 305              	.LCFI4:
 306              		.cfi_def_cfa_offset 8
 307              		.cfi_offset 4, -8
 308              		.cfi_offset 14, -4
 309              		.loc 1 483 0
 310 0004 012B     		cmp	r3, #1
 311              		.loc 1 480 0
 312 0006 0446     		mov	r4, r0
 313              		.loc 1 483 0
 314 0008 0ED0     		beq	.L20
 315              	.LVL19:
 316              	.L16:
 317              		.loc 1 604 0
 318 000a 6368     		ldr	r3, [r4, #4]
 319 000c A168     		ldr	r1, [r4, #8]
 320 000e 1A68     		ldr	r2, [r3, #0]
 321              		.loc 1 609 0
 322 0010 E368     		ldr	r3, [r4, #12]
 323              		.loc 1 604 0
 324 0012 B1FBF2F1 		udiv	r1, r1, r2
 325 0016 0139     		subs	r1, r1, #1
 326              		.loc 1 609 0
 327 0018 0022     		movs	r2, #0
 328              		.loc 1 604 0
 329 001a 89B2     		uxth	r1, r1
 330              	.LVL20:
 331              		.loc 1 610 0
 332 001c 0820     		movs	r0, #8
 333              		.loc 1 609 0
 334 001e 1A80     		strh	r2, [r3, #0]	@ movhi
 335              		.loc 1 610 0
 336 0020 9880     		strh	r0, [r3, #4]	@ movhi
 337              		.loc 1 611 0
 338 0022 1985     		strh	r1, [r3, #40]	@ movhi
 339              		.loc 1 612 0
 340 0024 9A81     		strh	r2, [r3, #12]	@ movhi
 341 0026 10BD     		pop	{r4, pc}
ARM GAS  C:\Users\GRACEK~1\AppData\Local\Temp\ccMogxSH.s 			page 7


 342              	.LVL21:
 343              	.L20:
 344              		.loc 1 486 0
 345 0028 224B     		ldr	r3, .L23
 346 002a 9842     		cmp	r0, r3
 347 002c 1DD0     		beq	.L21
 348              		.loc 1 495 0
 349 002e 224B     		ldr	r3, .L23+4
 350 0030 9842     		cmp	r0, r3
 351 0032 32D0     		beq	.L22
 352              		.loc 1 523 0
 353 0034 214B     		ldr	r3, .L23+8
 354 0036 9842     		cmp	r0, r3
 355 0038 E7D1     		bne	.L16
 356              		.loc 1 524 0
 357 003a 4FF48053 		mov	r3, #4096
 358 003e C4F20203 		movt	r3, 16386
 359 0042 DA69     		ldr	r2, [r3, #28]
 360              		.loc 1 526 0
 361 0044 3220     		movs	r0, #50
 362              	.LVL22:
 363              		.loc 1 524 0
 364 0046 42F00802 		orr	r2, r2, #8
 365 004a DA61     		str	r2, [r3, #28]
 366              		.loc 1 525 0
 367 004c 1A69     		ldr	r2, [r3, #16]
 368 004e 42F00802 		orr	r2, r2, #8
 369              	.L19:
 370 0052 1A61     		str	r2, [r3, #16]
 371 0054 0022     		movs	r2, #0
 372 0056 1A61     		str	r2, [r3, #16]
 373              		.loc 1 526 0
 374 0058 7021     		movs	r1, #112
 375 005a FFF7FEFF 		bl	nvicEnableVector
 376              	.LVL23:
 377              		.loc 1 528 0
 378 005e 4FF42243 		mov	r3, #41472
 379 0062 C0F24A43 		movt	r3, 1098
 380 0066 A360     		str	r3, [r4, #8]
 381 0068 CFE7     		b	.L16
 382              	.LVL24:
 383              	.L21:
 384              		.loc 1 487 0
 385 006a 4FF48053 		mov	r3, #4096
 386 006e C4F20203 		movt	r3, 16386
 387 0072 9A69     		ldr	r2, [r3, #24]
 388              		.loc 1 489 0
 389 0074 1920     		movs	r0, #25
 390              	.LVL25:
 391              		.loc 1 487 0
 392 0076 42F40062 		orr	r2, r2, #2048
 393 007a 9A61     		str	r2, [r3, #24]
 394              		.loc 1 488 0
 395 007c DA68     		ldr	r2, [r3, #12]
 396              		.loc 1 489 0
 397 007e 7021     		movs	r1, #112
 398              		.loc 1 488 0
ARM GAS  C:\Users\GRACEK~1\AppData\Local\Temp\ccMogxSH.s 			page 8


 399 0080 42F40062 		orr	r2, r2, #2048
 400 0084 DA60     		str	r2, [r3, #12]
 401 0086 0022     		movs	r2, #0
 402 0088 DA60     		str	r2, [r3, #12]
 403              		.loc 1 489 0
 404 008a FFF7FEFF 		bl	nvicEnableVector
 405              	.LVL26:
 406              		.loc 1 491 0
 407 008e 4FF42243 		mov	r3, #41472
 408 0092 C0F24A43 		movt	r3, 1098
 409 0096 A360     		str	r3, [r4, #8]
 410 0098 B7E7     		b	.L16
 411              	.LVL27:
 412              	.L22:
 413              		.loc 1 496 0
 414 009a 4FF48053 		mov	r3, #4096
 415 009e C4F20203 		movt	r3, 16386
 416 00a2 DA69     		ldr	r2, [r3, #28]
 417              		.loc 1 498 0
 418 00a4 1C20     		movs	r0, #28
 419              	.LVL28:
 420              		.loc 1 496 0
 421 00a6 42F00102 		orr	r2, r2, #1
 422 00aa DA61     		str	r2, [r3, #28]
 423              		.loc 1 497 0
 424 00ac 1A69     		ldr	r2, [r3, #16]
 425 00ae 42F00102 		orr	r2, r2, #1
 426 00b2 CEE7     		b	.L19
 427              	.L24:
 428              		.align	2
 429              	.L23:
 430 00b4 00000000 		.word	.LANCHOR0
 431 00b8 00000000 		.word	.LANCHOR1
 432 00bc 00000000 		.word	.LANCHOR2
 433              		.cfi_endproc
 434              	.LFE68:
 435              		.size	gpt_lld_start, .-gpt_lld_start
 436              		.section	.text.gpt_lld_stop,"ax",%progbits
 437              		.align	2
 438              		.p2align 4,,15
 439              		.global	gpt_lld_stop
 440              		.thumb
 441              		.thumb_func
 442              		.type	gpt_lld_stop, %function
 443              	gpt_lld_stop:
 444              	.LFB69:
 445              		.loc 1 622 0
 446              		.cfi_startproc
 447              		@ args = 0, pretend = 0, frame = 0
 448              		@ frame_needed = 0, uses_anonymous_args = 0
 449              	.LVL29:
 450 0000 08B5     		push	{r3, lr}
 451              	.LCFI5:
 452              		.cfi_def_cfa_offset 8
 453              		.cfi_offset 3, -8
 454              		.cfi_offset 14, -4
 455              		.loc 1 624 0
ARM GAS  C:\Users\GRACEK~1\AppData\Local\Temp\ccMogxSH.s 			page 9


 456 0002 0378     		ldrb	r3, [r0, #0]	@ zero_extendqisi2
 457 0004 022B     		cmp	r3, #2
 458 0006 00D0     		beq	.L31
 459              	.LVL30:
 460              	.L25:
 461 0008 08BD     		pop	{r3, pc}
 462              	.LVL31:
 463              	.L31:
 464              		.loc 1 625 0
 465 000a C368     		ldr	r3, [r0, #12]
 466 000c 0022     		movs	r2, #0
 467 000e 1A80     		strh	r2, [r3, #0]	@ movhi
 468              		.loc 1 626 0
 469 0010 9A81     		strh	r2, [r3, #12]	@ movhi
 470              		.loc 1 627 0
 471 0012 1A82     		strh	r2, [r3, #16]	@ movhi
 472              		.loc 1 630 0
 473 0014 164B     		ldr	r3, .L34
 474 0016 9842     		cmp	r0, r3
 475 0018 11D0     		beq	.L32
 476              		.loc 1 636 0
 477 001a 164B     		ldr	r3, .L34+4
 478 001c 9842     		cmp	r0, r3
 479 001e 1AD0     		beq	.L33
 480              		.loc 1 654 0
 481 0020 154B     		ldr	r3, .L34+8
 482 0022 9842     		cmp	r0, r3
 483 0024 F0D1     		bne	.L25
 484              		.loc 1 655 0
 485 0026 3220     		movs	r0, #50
 486              	.LVL32:
 487 0028 FFF7FEFF 		bl	nvicDisableVector
 488              	.LVL33:
 489              		.loc 1 656 0
 490 002c 4FF48053 		mov	r3, #4096
 491 0030 C4F20203 		movt	r3, 16386
 492 0034 DA69     		ldr	r2, [r3, #28]
 493 0036 22F00802 		bic	r2, r2, #8
 494 003a DA61     		str	r2, [r3, #28]
 495 003c E4E7     		b	.L25
 496              	.LVL34:
 497              	.L32:
 498              		.loc 1 631 0
 499 003e 1920     		movs	r0, #25
 500              	.LVL35:
 501 0040 FFF7FEFF 		bl	nvicDisableVector
 502              	.LVL36:
 503              		.loc 1 632 0
 504 0044 4FF48053 		mov	r3, #4096
 505 0048 C4F20203 		movt	r3, 16386
 506 004c 9A69     		ldr	r2, [r3, #24]
 507 004e 22F40062 		bic	r2, r2, #2048
 508 0052 9A61     		str	r2, [r3, #24]
 509 0054 08BD     		pop	{r3, pc}
 510              	.LVL37:
 511              	.L33:
 512              		.loc 1 637 0
ARM GAS  C:\Users\GRACEK~1\AppData\Local\Temp\ccMogxSH.s 			page 10


 513 0056 1C20     		movs	r0, #28
 514              	.LVL38:
 515 0058 FFF7FEFF 		bl	nvicDisableVector
 516              	.LVL39:
 517              		.loc 1 638 0
 518 005c 4FF48053 		mov	r3, #4096
 519 0060 C4F20203 		movt	r3, 16386
 520 0064 DA69     		ldr	r2, [r3, #28]
 521 0066 22F00102 		bic	r2, r2, #1
 522 006a DA61     		str	r2, [r3, #28]
 523 006c 08BD     		pop	{r3, pc}
 524              	.L35:
 525 006e 00BF     		.align	2
 526              	.L34:
 527 0070 00000000 		.word	.LANCHOR0
 528 0074 00000000 		.word	.LANCHOR1
 529 0078 00000000 		.word	.LANCHOR2
 530              		.cfi_endproc
 531              	.LFE69:
 532              		.size	gpt_lld_stop, .-gpt_lld_stop
 533 007c AFF30080 		.section	.text.gpt_lld_start_timer,"ax",%progbits
 534              		.align	2
 535              		.p2align 4,,15
 536              		.global	gpt_lld_start_timer
 537              		.thumb
 538              		.thumb_func
 539              		.type	gpt_lld_start_timer, %function
 540              	gpt_lld_start_timer:
 541              	.LFB70:
 542              		.loc 1 712 0
 543              		.cfi_startproc
 544              		@ args = 0, pretend = 0, frame = 0
 545              		@ frame_needed = 0, uses_anonymous_args = 0
 546              		@ link register save eliminated.
 547              	.LVL40:
 548              		.loc 1 714 0
 549 0000 C368     		ldr	r3, [r0, #12]
 550              		.loc 1 715 0
 551 0002 0122     		movs	r2, #1
 552              		.loc 1 716 0
 553 0004 0020     		movs	r0, #0
 554              	.LVL41:
 555              		.loc 1 714 0
 556 0006 0139     		subs	r1, r1, #1
 557              	.LVL42:
 558 0008 D962     		str	r1, [r3, #44]
 559              		.loc 1 715 0
 560 000a 9A82     		strh	r2, [r3, #20]	@ movhi
 561              		.loc 1 716 0
 562 000c 5862     		str	r0, [r3, #36]
 563              		.loc 1 720 0
 564 000e 1882     		strh	r0, [r3, #16]	@ movhi
 565              		.loc 1 721 0
 566 0010 9A81     		strh	r2, [r3, #12]	@ movhi
 567              		.loc 1 722 0
 568 0012 0522     		movs	r2, #5
 569 0014 1A80     		strh	r2, [r3, #0]	@ movhi
ARM GAS  C:\Users\GRACEK~1\AppData\Local\Temp\ccMogxSH.s 			page 11


 570 0016 7047     		bx	lr
 571              		.cfi_endproc
 572              	.LFE70:
 573              		.size	gpt_lld_start_timer, .-gpt_lld_start_timer
 574              		.section	.text.gpt_lld_stop_timer,"ax",%progbits
 575              		.align	2
 576              		.p2align 4,,15
 577              		.global	gpt_lld_stop_timer
 578              		.thumb
 579              		.thumb_func
 580              		.type	gpt_lld_stop_timer, %function
 581              	gpt_lld_stop_timer:
 582              	.LFB71:
 583              		.loc 1 732 0
 584              		.cfi_startproc
 585              		@ args = 0, pretend = 0, frame = 0
 586              		@ frame_needed = 0, uses_anonymous_args = 0
 587              		@ link register save eliminated.
 588              	.LVL43:
 589              		.loc 1 734 0
 590 0000 C368     		ldr	r3, [r0, #12]
 591 0002 0022     		movs	r2, #0
 592 0004 1A80     		strh	r2, [r3, #0]	@ movhi
 593              		.loc 1 735 0
 594 0006 1A82     		strh	r2, [r3, #16]	@ movhi
 595              		.loc 1 736 0
 596 0008 9A81     		strh	r2, [r3, #12]	@ movhi
 597 000a 7047     		bx	lr
 598              		.cfi_endproc
 599              	.LFE71:
 600              		.size	gpt_lld_stop_timer, .-gpt_lld_stop_timer
 601 000c AFF30080 		.section	.text.gpt_lld_polled_delay,"ax",%progbits
 602              		.align	2
 603              		.p2align 4,,15
 604              		.global	gpt_lld_polled_delay
 605              		.thumb
 606              		.thumb_func
 607              		.type	gpt_lld_polled_delay, %function
 608              	gpt_lld_polled_delay:
 609              	.LFB72:
 610              		.loc 1 750 0
 611              		.cfi_startproc
 612              		@ args = 0, pretend = 0, frame = 0
 613              		@ frame_needed = 0, uses_anonymous_args = 0
 614              		@ link register save eliminated.
 615              	.LVL44:
 616              		.loc 1 752 0
 617 0000 C268     		ldr	r2, [r0, #12]
 618              		.loc 1 753 0
 619 0002 0123     		movs	r3, #1
 620              		.loc 1 752 0
 621 0004 0139     		subs	r1, r1, #1
 622              	.LVL45:
 623 0006 D162     		str	r1, [r2, #44]
 624              		.loc 1 753 0
 625 0008 9382     		strh	r3, [r2, #20]	@ movhi
 626              		.loc 1 754 0
ARM GAS  C:\Users\GRACEK~1\AppData\Local\Temp\ccMogxSH.s 			page 12


 627 000a 0023     		movs	r3, #0
 628 000c 1382     		strh	r3, [r2, #16]	@ movhi
 629              		.loc 1 755 0
 630 000e 0D23     		movs	r3, #13
 631 0010 1380     		strh	r3, [r2, #0]	@ movhi
 632              	.L39:
 633              		.loc 1 756 0 discriminator 1
 634 0012 138A     		ldrh	r3, [r2, #16]
 635 0014 DB07     		lsls	r3, r3, #31
 636 0016 FCD5     		bpl	.L39
 637              		.loc 1 758 0
 638 0018 7047     		bx	lr
 639              		.cfi_endproc
 640              	.LFE72:
 641              		.size	gpt_lld_polled_delay, .-gpt_lld_polled_delay
 642              		.global	GPTD5
 643              		.global	GPTD2
 644              		.global	GPTD1
 645 001a 00BFAFF3 		.section	.bss.GPTD1,"aw",%nobits
 645      0080
 646              		.align	2
 647              		.set	.LANCHOR0,. + 0
 648              		.type	GPTD1, %object
 649              		.size	GPTD1, 16
 650              	GPTD1:
 651 0000 00000000 		.space	16
 651      00000000 
 651      00000000 
 651      00000000 
 652              		.section	.bss.GPTD2,"aw",%nobits
 653              		.align	2
 654              		.set	.LANCHOR1,. + 0
 655              		.type	GPTD2, %object
 656              		.size	GPTD2, 16
 657              	GPTD2:
 658 0000 00000000 		.space	16
 658      00000000 
 658      00000000 
 658      00000000 
 659              		.section	.bss.GPTD5,"aw",%nobits
 660              		.align	2
 661              		.set	.LANCHOR2,. + 0
 662              		.type	GPTD5, %object
 663              		.size	GPTD5, 16
 664              	GPTD5:
 665 0000 00000000 		.space	16
 665      00000000 
 665      00000000 
 665      00000000 
 666              		.text
 667              	.Letext0:
 668              		.file 2 "c:/program files/pros/toolchain/lib/gcc/../../arm-none-eabi/include/stdint.h"
 669              		.file 3 "../ChibiOS_2.6.0/os/hal/platforms/STM32F1xx/stm32f10x.h"
 670              		.file 4 "../ChibiOS_2.6.0/os/hal/platforms/STM32/stm32.h"
 671              		.file 5 "../ChibiOS_2.6.0/os/hal/include/gpt.h"
 672              		.file 6 "../ChibiOS_2.6.0/os/hal/platforms/STM32/gpt_lld.h"
 673              		.file 7 "../ChibiOS_2.6.0/os/ports/common/ARMCMx/CMSIS/include/core_cm3.h"
ARM GAS  C:\Users\GRACEK~1\AppData\Local\Temp\ccMogxSH.s 			page 13


 674              		.file 8 "../ChibiOS_2.6.0/os/ports/common/ARMCMx/nvic.h"
 675              		.file 9 "../ChibiOS_2.6.0/os/ports/GCC/ARMCMx/chcore_v7m.h"