ARM GAS  C:\Users\GRACEK~1\AppData\Local\Temp\ccsoh5WX.s 			page 1


   1              		.syntax unified
   2              		.cpu cortex-m3
   3              		.fpu softvfp
   4              		.eabi_attribute 20, 1
   5              		.eabi_attribute 21, 1
   6              		.eabi_attribute 23, 3
   7              		.eabi_attribute 24, 1
   8              		.eabi_attribute 25, 1
   9              		.eabi_attribute 26, 1
  10              		.eabi_attribute 30, 2
  11              		.eabi_attribute 34, 1
  12              		.eabi_attribute 18, 4
  13              		.thumb
  14              		.file	"i2c_lld.c"
  15              		.text
  16              	.Ltext0:
  17              		.cfi_sections	.debug_frame
  18              		.section	.text.i2c_lld_abort_operation,"ax",%progbits
  19              		.align	2
  20              		.p2align 4,,15
  21              		.thumb
  22              		.thumb_func
  23              		.type	i2c_lld_abort_operation, %function
  24              	i2c_lld_abort_operation:
  25              	.LFB63:
  26              		.file 1 "../ChibiOS_2.6.0/os/hal/platforms/STM32/I2Cv1/i2c_lld.c"
  27              		.loc 1 139 0
  28              		.cfi_startproc
  29              		@ args = 0, pretend = 0, frame = 0
  30              		@ frame_needed = 0, uses_anonymous_args = 0
  31              		@ link register save eliminated.
  32              	.LVL0:
  33              		.loc 1 149 0
  34 0000 026B     		ldr	r2, [r0, #48]
  35              		.loc 1 140 0
  36 0002 436B     		ldr	r3, [r0, #52]
  37              	.LVL1:
  38              		.loc 1 139 0
  39 0004 30B4     		push	{r4, r5}
  40              	.LCFI0:
  41              		.cfi_def_cfa_offset 8
  42              		.cfi_offset 4, -8
  43              		.cfi_offset 5, -4
  44              		.loc 1 144 0
  45 0006 0021     		movs	r1, #0
  46              		.loc 1 149 0
  47 0008 1468     		ldr	r4, [r2, #0]
  48              		.loc 1 143 0
  49 000a 4FF40045 		mov	r5, #32768
  50 000e 1D80     		strh	r5, [r3, #0]	@ movhi
  51              		.loc 1 144 0
  52 0010 1980     		strh	r1, [r3, #0]	@ movhi
  53              		.loc 1 145 0
  54 0012 9980     		strh	r1, [r3, #4]	@ movhi
  55              		.loc 1 146 0
  56 0014 9982     		strh	r1, [r3, #20]	@ movhi
  57              		.loc 1 149 0
ARM GAS  C:\Users\GRACEK~1\AppData\Local\Temp\ccsoh5WX.s 			page 2


  58 0016 2368     		ldr	r3, [r4, #0]
  59              	.LVL2:
  60 0018 0F21     		movs	r1, #15
  61 001a 23F00F03 		bic	r3, r3, #15
  62 001e 2360     		str	r3, [r4, #0]
  63 0020 147A     		ldrb	r4, [r2, #8]	@ zero_extendqisi2
  64              		.loc 1 150 0
  65 0022 C36A     		ldr	r3, [r0, #44]
  66              		.loc 1 149 0
  67 0024 01FA04F4 		lsl	r4, r1, r4
  68 0028 5068     		ldr	r0, [r2, #4]
  69              	.LVL3:
  70              		.loc 1 150 0
  71 002a 1A68     		ldr	r2, [r3, #0]
  72              		.loc 1 149 0
  73 002c 0460     		str	r4, [r0, #0]
  74              		.loc 1 150 0
  75 002e 1468     		ldr	r4, [r2, #0]
  76 0030 5868     		ldr	r0, [r3, #4]
  77 0032 24F00F04 		bic	r4, r4, #15
  78 0036 1460     		str	r4, [r2, #0]
  79 0038 1B7A     		ldrb	r3, [r3, #8]	@ zero_extendqisi2
  80 003a 01FA03F1 		lsl	r1, r1, r3
  81 003e 0160     		str	r1, [r0, #0]
  82              		.loc 1 151 0
  83 0040 30BC     		pop	{r4, r5}
  84 0042 7047     		bx	lr
  85              		.cfi_endproc
  86              	.LFE63:
  87              		.size	i2c_lld_abort_operation, .-i2c_lld_abort_operation
  88 0044 AFF30080 		.section	.text.i2c_lld_safety_timeout,"ax",%progbits
  88      AFF30080 
  88      AFF30080 
  89              		.align	2
  90              		.p2align 4,,15
  91              		.thumb
  92              		.thumb_func
  93              		.type	i2c_lld_safety_timeout, %function
  94              	i2c_lld_safety_timeout:
  95              	.LFB64:
  96              		.loc 1 160 0
  97              		.cfi_startproc
  98              		@ args = 0, pretend = 0, frame = 0
  99              		@ frame_needed = 0, uses_anonymous_args = 0
 100              	.LVL4:
 101 0000 38B5     		push	{r3, r4, r5, lr}
 102              	.LCFI1:
 103              		.cfi_def_cfa_offset 16
 104              		.cfi_offset 3, -16
 105              		.cfi_offset 4, -12
 106              		.cfi_offset 5, -8
 107              		.cfi_offset 14, -4
 108              		.loc 1 160 0
 109 0002 0546     		mov	r5, r0
 110              	.LVL5:
 111              	.LBB8:
 112              		.loc 1 163 0
ARM GAS  C:\Users\GRACEK~1\AppData\Local\Temp\ccsoh5WX.s 			page 3


 113 0004 2023     		movs	r3, #32
 114              	.LVL6:
 115              	@ 163 "../ChibiOS_2.6.0/os/hal/platforms/STM32/I2Cv1/i2c_lld.c" 1
 116 0006 83F31188 		msr     BASEPRI, r3
 117              	@ 0 "" 2
 118              	.LVL7:
 119              		.thumb
 120              	.LBE8:
 121              		.loc 1 164 0
 122 000a C469     		ldr	r4, [r0, #28]
 123 000c 4CB1     		cbz	r4, .L3
 124              	.LVL8:
 125              	.LBB9:
 126              		.loc 1 166 0
 127 000e FFF7FEFF 		bl	i2c_lld_abort_operation
 128              	.LVL9:
 129              		.loc 1 167 0
 130 0012 0023     		movs	r3, #0
 131 0014 EB61     		str	r3, [r5, #28]
 132              		.loc 1 168 0
 133 0016 4FF0FF33 		mov	r3, #-1
 134              		.loc 1 169 0
 135 001a 2046     		mov	r0, r4
 136              		.loc 1 168 0
 137 001c 6362     		str	r3, [r4, #36]
 138              		.loc 1 169 0
 139 001e FFF7FEFF 		bl	chSchReadyI
 140              	.LVL10:
 141              	.L3:
 142              	.LBE9:
 143              	.LBB10:
 144              		.loc 1 171 0
 145 0022 0023     		movs	r3, #0
 146              	.LVL11:
 147              	@ 171 "../ChibiOS_2.6.0/os/hal/platforms/STM32/I2Cv1/i2c_lld.c" 1
 148 0024 83F31188 		msr     BASEPRI, r3
 149              	@ 0 "" 2
 150              	.LVL12:
 151              		.thumb
 152 0028 38BD     		pop	{r3, r4, r5, pc}
 153              	.LBE10:
 154              		.cfi_endproc
 155              	.LFE64:
 156              		.size	i2c_lld_safety_timeout, .-i2c_lld_safety_timeout
 157 002a 00BFAFF3 		.section	.text.i2c_lld_serve_tx_end_irq,"ax",%progbits
 157      0080
 158              		.align	2
 159              		.p2align 4,,15
 160              		.thumb
 161              		.thumb_func
 162              		.type	i2c_lld_serve_tx_end_irq, %function
 163              	i2c_lld_serve_tx_end_irq:
 164              	.LFB69:
 165              		.loc 1 368 0
 166              		.cfi_startproc
 167              		@ args = 0, pretend = 0, frame = 0
 168              		@ frame_needed = 0, uses_anonymous_args = 0
ARM GAS  C:\Users\GRACEK~1\AppData\Local\Temp\ccsoh5WX.s 			page 4


 169              	.LVL13:
 170 0000 38B5     		push	{r3, r4, r5, lr}
 171              	.LCFI2:
 172              		.cfi_def_cfa_offset 16
 173              		.cfi_offset 3, -16
 174              		.cfi_offset 4, -12
 175              		.cfi_offset 5, -8
 176              		.cfi_offset 14, -4
 177              		.loc 1 373 0
 178 0002 0B07     		lsls	r3, r1, #28
 179              		.loc 1 368 0
 180 0004 0546     		mov	r5, r0
 181              		.loc 1 369 0
 182 0006 446B     		ldr	r4, [r0, #52]
 183              	.LVL14:
 184              		.loc 1 373 0
 185 0008 01D5     		bpl	.L9
 186              		.loc 1 374 0
 187 000a FFF7FEFF 		bl	port_halt
 188              	.LVL15:
 189              	.L9:
 190              		.loc 1 380 0
 191 000e 2B6B     		ldr	r3, [r5, #48]
 192 0010 1A68     		ldr	r2, [r3, #0]
 193 0012 5968     		ldr	r1, [r3, #4]
 194 0014 1068     		ldr	r0, [r2, #0]
 195 0016 20F00F00 		bic	r0, r0, #15
 196 001a 1060     		str	r0, [r2, #0]
 197 001c 1B7A     		ldrb	r3, [r3, #8]	@ zero_extendqisi2
 198 001e 0F22     		movs	r2, #15
 199 0020 02FA03F3 		lsl	r3, r2, r3
 200 0024 0B60     		str	r3, [r1, #0]
 201              		.loc 1 384 0
 202 0026 A388     		ldrh	r3, [r4, #4]
 203 0028 9BB2     		uxth	r3, r3
 204 002a 43F40073 		orr	r3, r3, #512
 205 002e A380     		strh	r3, [r4, #4]	@ movhi
 206 0030 38BD     		pop	{r3, r4, r5, pc}
 207              		.cfi_endproc
 208              	.LFE69:
 209              		.size	i2c_lld_serve_tx_end_irq, .-i2c_lld_serve_tx_end_irq
 210 0032 00BFAFF3 		.section	.text.i2c_lld_serve_rx_end_irq,"ax",%progbits
 210      0080AFF3 
 210      0080AFF3 
 210      0080
 211              		.align	2
 212              		.p2align 4,,15
 213              		.thumb
 214              		.thumb_func
 215              		.type	i2c_lld_serve_rx_end_irq, %function
 216              	i2c_lld_serve_rx_end_irq:
 217              	.LFB68:
 218              		.loc 1 341 0
 219              		.cfi_startproc
 220              		@ args = 0, pretend = 0, frame = 0
 221              		@ frame_needed = 0, uses_anonymous_args = 0
 222              	.LVL16:
ARM GAS  C:\Users\GRACEK~1\AppData\Local\Temp\ccsoh5WX.s 			page 5


 223              		.loc 1 346 0
 224 0000 0A07     		lsls	r2, r1, #28
 225              		.loc 1 341 0
 226 0002 70B5     		push	{r4, r5, r6, lr}
 227              	.LCFI3:
 228              		.cfi_def_cfa_offset 16
 229              		.cfi_offset 4, -16
 230              		.cfi_offset 5, -12
 231              		.cfi_offset 6, -8
 232              		.cfi_offset 14, -4
 233              		.loc 1 341 0
 234 0004 0546     		mov	r5, r0
 235              		.loc 1 342 0
 236 0006 446B     		ldr	r4, [r0, #52]
 237              	.LVL17:
 238              		.loc 1 346 0
 239 0008 2BD4     		bmi	.L22
 240              	.LVL18:
 241              	.L14:
 242              		.loc 1 353 0
 243 000a EA6A     		ldr	r2, [r5, #44]
 244              	.LBB11:
 245              		.loc 1 358 0
 246 000c 2023     		movs	r3, #32
 247              	.LVL19:
 248              	.LBE11:
 249              		.loc 1 353 0
 250 000e 1168     		ldr	r1, [r2, #0]
 251 0010 5068     		ldr	r0, [r2, #4]
 252 0012 0E68     		ldr	r6, [r1, #0]
 253 0014 26F00F06 		bic	r6, r6, #15
 254 0018 0E60     		str	r6, [r1, #0]
 255 001a 127A     		ldrb	r2, [r2, #8]	@ zero_extendqisi2
 256 001c 0F21     		movs	r1, #15
 257 001e 01FA02F2 		lsl	r2, r1, r2
 258 0022 0260     		str	r2, [r0, #0]
 259              		.loc 1 355 0
 260 0024 A288     		ldrh	r2, [r4, #4]
 261 0026 22F48052 		bic	r2, r2, #4096
 262 002a 1204     		lsls	r2, r2, #16
 263 002c 120C     		lsrs	r2, r2, #16
 264 002e A280     		strh	r2, [r4, #4]	@ movhi
 265              		.loc 1 356 0
 266 0030 2288     		ldrh	r2, [r4, #0]
 267 0032 22F48062 		bic	r2, r2, #1024
 268 0036 1204     		lsls	r2, r2, #16
 269 0038 120C     		lsrs	r2, r2, #16
 270 003a 2280     		strh	r2, [r4, #0]	@ movhi
 271              		.loc 1 357 0
 272 003c 2288     		ldrh	r2, [r4, #0]
 273 003e 92B2     		uxth	r2, r2
 274 0040 42F40072 		orr	r2, r2, #512
 275 0044 2280     		strh	r2, [r4, #0]	@ movhi
 276              	.LBB12:
 277              		.loc 1 358 0
 278              	@ 358 "../ChibiOS_2.6.0/os/hal/platforms/STM32/I2Cv1/i2c_lld.c" 1
 279 0046 83F31188 		msr     BASEPRI, r3
ARM GAS  C:\Users\GRACEK~1\AppData\Local\Temp\ccsoh5WX.s 			page 6


 280              	@ 0 "" 2
 281              	.LVL20:
 282              		.thumb
 283              	.LBE12:
 284 004a EB69     		ldr	r3, [r5, #28]
 285              	.LVL21:
 286 004c 2BB1     		cbz	r3, .L15
 287              	.LVL22:
 288              	.LBB13:
 289              		.loc 1 358 0 is_stmt 0 discriminator 1
 290 004e 0022     		movs	r2, #0
 291 0050 EA61     		str	r2, [r5, #28]
 292 0052 1846     		mov	r0, r3
 293 0054 5A62     		str	r2, [r3, #36]
 294 0056 FFF7FEFF 		bl	chSchReadyI
 295              	.LVL23:
 296              	.L15:
 297              	.LBE13:
 298              	.LBB14:
 299              		.loc 1 358 0 discriminator 2
 300 005a 0023     		movs	r3, #0
 301              	.LVL24:
 302              	@ 358 "../ChibiOS_2.6.0/os/hal/platforms/STM32/I2Cv1/i2c_lld.c" 1
 303 005c 83F31188 		msr     BASEPRI, r3
 304              	@ 0 "" 2
 305              	.LVL25:
 306              		.thumb
 307 0060 70BD     		pop	{r4, r5, r6, pc}
 308              	.LVL26:
 309              	.L22:
 310              	.LBE14:
 311              		.loc 1 347 0 is_stmt 1
 312 0062 FFF7FEFF 		bl	port_halt
 313              	.LVL27:
 314 0066 D0E7     		b	.L14
 315              		.cfi_endproc
 316              	.LFE68:
 317              		.size	i2c_lld_serve_rx_end_irq, .-i2c_lld_serve_rx_end_irq
 318 0068 AFF30080 		.section	.text.VectorBC,"ax",%progbits
 318      AFF30080 
 319              		.align	2
 320              		.p2align 4,,15
 321              		.global	VectorBC
 322              		.thumb
 323              		.thumb_func
 324              		.type	VectorBC, %function
 325              	VectorBC:
 326              	.LFB71:
 327              		.loc 1 442 0
 328              		.cfi_startproc
 329              		@ args = 0, pretend = 0, frame = 0
 330              		@ frame_needed = 0, uses_anonymous_args = 0
 331              	.LVL28:
 332              	.LBB20:
 333              	.LBB21:
 334              		.loc 1 291 0
 335 0000 3B4A     		ldr	r2, .L40
ARM GAS  C:\Users\GRACEK~1\AppData\Local\Temp\ccsoh5WX.s 			page 7


 336              	.LBE21:
 337              	.LBE20:
 338              		.loc 1 442 0
 339 0002 70B5     		push	{r4, r5, r6, lr}
 340              	.LCFI4:
 341              		.cfi_def_cfa_offset 16
 342              		.cfi_offset 4, -16
 343              		.cfi_offset 5, -12
 344              		.cfi_offset 6, -8
 345              		.cfi_offset 14, -4
 346              	.LBB28:
 347              	.LBB26:
 348              		.loc 1 291 0
 349 0004 546B     		ldr	r4, [r2, #52]
 350              	.LVL29:
 351              		.loc 1 298 0
 352 0006 0223     		movs	r3, #2
 353              		.loc 1 292 0
 354 0008 218B     		ldrh	r1, [r4, #24]
 355              	.LVL30:
 356              		.loc 1 293 0
 357 000a A58A     		ldrh	r5, [r4, #20]
 358              		.loc 1 298 0
 359 000c C0F20303 		movt	r3, 3
 360              		.loc 1 293 0
 361 0010 ADB2     		uxth	r5, r5
 362              	.LVL31:
 363              		.loc 1 298 0
 364 0012 45EA0141 		orr	r1, r5, r1, lsl #16
 365              	.LVL32:
 366 0016 21F07F41 		bic	r1, r1, #-16777216
 367 001a 9942     		cmp	r1, r3
 368 001c 43D0     		beq	.L26
 369 001e 0ED8     		bhi	.L29
 370 0020 0123     		movs	r3, #1
 371 0022 C0F20303 		movt	r3, 3
 372 0026 9942     		cmp	r1, r3
 373 0028 01D1     		bne	.L24
 374              		.loc 1 300 0
 375 002a 138C     		ldrh	r3, [r2, #32]
 376 002c 2382     		strh	r3, [r4, #16]	@ movhi
 377              	.LVL33:
 378              	.L24:
 379              		.loc 1 329 0
 380 002e 15F00A0F 		tst	r5, #10
 381              		.loc 1 330 0
 382 0032 18BF     		it	ne
 383 0034 238B     		ldrhne	r3, [r4, #24]
 384              	.LVL34:
 385              	.L31:
 386              	.LBE26:
 387              	.LBE28:
 388              		.loc 1 449 0
 389 0036 BDE87040 		pop	{r4, r5, r6, lr}
 390              		.loc 1 448 0
 391 003a FFF7FEBF 		b	_port_irq_epilogue
 392              	.LVL35:
ARM GAS  C:\Users\GRACEK~1\AppData\Local\Temp\ccsoh5WX.s 			page 8


 393              	.L29:
 394              	.LBB29:
 395              	.LBB27:
 396              		.loc 1 298 0
 397 003e 8223     		movs	r3, #130
 398 0040 C0F20703 		movt	r3, 7
 399 0044 9942     		cmp	r1, r3
 400 0046 21D0     		beq	.L27
 401 0048 8423     		movs	r3, #132
 402 004a C0F20703 		movt	r3, 7
 403 004e 9942     		cmp	r1, r3
 404 0050 EDD1     		bne	.L24
 405              		.loc 1 315 0
 406 0052 D36A     		ldr	r3, [r2, #44]
 407 0054 1B68     		ldr	r3, [r3, #0]
 408 0056 5E68     		ldr	r6, [r3, #4]
 409 0058 002E     		cmp	r6, #0
 410 005a 3FD1     		bne	.L39
 411              		.loc 1 321 0
 412 005c A188     		ldrh	r1, [r4, #4]
 413              	.LBB22:
 414              		.loc 1 323 0
 415 005e 2023     		movs	r3, #32
 416              	.LVL36:
 417              	.LBE22:
 418              		.loc 1 321 0
 419 0060 21F40071 		bic	r1, r1, #512
 420 0064 0904     		lsls	r1, r1, #16
 421 0066 090C     		lsrs	r1, r1, #16
 422 0068 A180     		strh	r1, [r4, #4]	@ movhi
 423              		.loc 1 322 0
 424 006a 2188     		ldrh	r1, [r4, #0]
 425 006c 89B2     		uxth	r1, r1
 426 006e 41F40071 		orr	r1, r1, #512
 427 0072 2180     		strh	r1, [r4, #0]	@ movhi
 428              	.LBB23:
 429              		.loc 1 323 0
 430              	@ 323 "../ChibiOS_2.6.0/os/hal/platforms/STM32/I2Cv1/i2c_lld.c" 1
 431 0074 83F31188 		msr     BASEPRI, r3
 432              	@ 0 "" 2
 433              	.LVL37:
 434              		.thumb
 435              	.LBE23:
 436 0078 D069     		ldr	r0, [r2, #28]
 437 007a 18B1     		cbz	r0, .L32
 438              	.LVL38:
 439              	.LBB24:
 440 007c 4662     		str	r6, [r0, #36]
 441 007e D661     		str	r6, [r2, #28]
 442 0080 FFF7FEFF 		bl	chSchReadyI
 443              	.LVL39:
 444              	.L32:
 445              	.LBE24:
 446              	.LBB25:
 447 0084 0023     		movs	r3, #0
 448              	.LVL40:
 449              	@ 323 "../ChibiOS_2.6.0/os/hal/platforms/STM32/I2Cv1/i2c_lld.c" 1
ARM GAS  C:\Users\GRACEK~1\AppData\Local\Temp\ccsoh5WX.s 			page 9


 450 0086 83F31188 		msr     BASEPRI, r3
 451              	@ 0 "" 2
 452              	.LVL41:
 453              		.thumb
 454 008a D0E7     		b	.L24
 455              	.LVL42:
 456              	.L27:
 457              	.LBE25:
 458              		.loc 1 310 0
 459 008c A388     		ldrh	r3, [r4, #4]
 460              		.loc 1 311 0
 461 008e 126B     		ldr	r2, [r2, #48]
 462              		.loc 1 310 0
 463 0090 23F40073 		bic	r3, r3, #512
 464 0094 1B04     		lsls	r3, r3, #16
 465              		.loc 1 311 0
 466 0096 1268     		ldr	r2, [r2, #0]
 467              		.loc 1 310 0
 468 0098 1B0C     		lsrs	r3, r3, #16
 469 009a A380     		strh	r3, [r4, #4]	@ movhi
 470              		.loc 1 311 0
 471 009c 1368     		ldr	r3, [r2, #0]
 472 009e 43F00103 		orr	r3, r3, #1
 473 00a2 1360     		str	r3, [r2, #0]
 474 00a4 C3E7     		b	.L24
 475              	.L26:
 476              		.loc 1 303 0
 477 00a6 A388     		ldrh	r3, [r4, #4]
 478              		.loc 1 304 0
 479 00a8 D26A     		ldr	r2, [r2, #44]
 480              		.loc 1 303 0
 481 00aa 23F40073 		bic	r3, r3, #512
 482 00ae 1B04     		lsls	r3, r3, #16
 483              		.loc 1 304 0
 484 00b0 1268     		ldr	r2, [r2, #0]
 485              		.loc 1 303 0
 486 00b2 1B0C     		lsrs	r3, r3, #16
 487 00b4 A380     		strh	r3, [r4, #4]	@ movhi
 488              		.loc 1 304 0
 489 00b6 1368     		ldr	r3, [r2, #0]
 490 00b8 43F00103 		orr	r3, r3, #1
 491 00bc 1360     		str	r3, [r2, #0]
 492              		.loc 1 305 0
 493 00be A388     		ldrh	r3, [r4, #4]
 494 00c0 9BB2     		uxth	r3, r3
 495 00c2 43F48053 		orr	r3, r3, #4096
 496 00c6 A380     		strh	r3, [r4, #4]	@ movhi
 497              		.loc 1 306 0
 498 00c8 5368     		ldr	r3, [r2, #4]
 499 00ca 012B     		cmp	r3, #1
 500 00cc AFD8     		bhi	.L24
 501              		.loc 1 307 0
 502 00ce 2388     		ldrh	r3, [r4, #0]
 503 00d0 23F48063 		bic	r3, r3, #1024
 504 00d4 1B04     		lsls	r3, r3, #16
 505 00d6 1B0C     		lsrs	r3, r3, #16
 506 00d8 2380     		strh	r3, [r4, #0]	@ movhi
ARM GAS  C:\Users\GRACEK~1\AppData\Local\Temp\ccsoh5WX.s 			page 10


 507 00da A8E7     		b	.L24
 508              	.L39:
 509              		.loc 1 318 0
 510 00dc 2388     		ldrh	r3, [r4, #0]
 511              		.loc 1 317 0
 512 00de 118C     		ldrh	r1, [r2, #32]
 513              		.loc 1 318 0
 514 00e0 9BB2     		uxth	r3, r3
 515              		.loc 1 317 0
 516 00e2 41F00101 		orr	r1, r1, #1
 517              		.loc 1 318 0
 518 00e6 43F4A063 		orr	r3, r3, #1280
 519              		.loc 1 317 0
 520 00ea 1184     		strh	r1, [r2, #32]	@ movhi
 521              		.loc 1 318 0
 522 00ec 2380     		strh	r3, [r4, #0]	@ movhi
 523 00ee A2E7     		b	.L31
 524              	.L41:
 525              		.align	2
 526              	.L40:
 527 00f0 00000000 		.word	.LANCHOR0
 528              	.LBE27:
 529              	.LBE29:
 530              		.cfi_endproc
 531              	.LFE71:
 532              		.size	VectorBC, .-VectorBC
 533 00f4 AFF30080 		.section	.text.VectorC0,"ax",%progbits
 533      AFF30080 
 533      AFF30080 
 534              		.align	2
 535              		.p2align 4,,15
 536              		.global	VectorC0
 537              		.thumb
 538              		.thumb_func
 539              		.type	VectorC0, %function
 540              	VectorC0:
 541              	.LFB72:
 542              		.loc 1 454 0
 543              		.cfi_startproc
 544              		@ args = 0, pretend = 0, frame = 0
 545              		@ frame_needed = 0, uses_anonymous_args = 0
 546              		.loc 1 455 0
 547 0000 3949     		ldr	r1, .L76
 548              		.loc 1 454 0
 549 0002 F8B5     		push	{r3, r4, r5, r6, r7, lr}
 550              	.LCFI5:
 551              		.cfi_def_cfa_offset 24
 552              		.cfi_offset 3, -24
 553              		.cfi_offset 4, -20
 554              		.cfi_offset 5, -16
 555              		.cfi_offset 6, -12
 556              		.cfi_offset 7, -8
 557              		.cfi_offset 14, -4
 558              		.loc 1 455 0
 559 0004 486B     		ldr	r0, [r1, #52]
 560              	.LBB35:
 561              	.LBB36:
ARM GAS  C:\Users\GRACEK~1\AppData\Local\Temp\ccsoh5WX.s 			page 11


 562              		.loc 1 398 0
 563 0006 0C6B     		ldr	r4, [r1, #48]
 564              	.LBE36:
 565              	.LBE35:
 566              		.loc 1 455 0
 567 0008 828A     		ldrh	r2, [r0, #20]
 568              	.LBB43:
 569              	.LBB40:
 570              		.loc 1 398 0
 571 000a 2668     		ldr	r6, [r4, #0]
 572              	.LBE40:
 573              	.LBE43:
 574              		.loc 1 455 0
 575 000c 92B2     		uxth	r2, r2
 576              	.LVL43:
 577              		.loc 1 459 0
 578 000e 02F45F43 		and	r3, r2, #57088
 579 0012 83F47F43 		eor	r3, r3, #65280
 580 0016 83F0FF03 		eor	r3, r3, #255
 581 001a 8382     		strh	r3, [r0, #20]	@ movhi
 582              	.LVL44:
 583              	.LBB44:
 584              	.LBB41:
 585              		.loc 1 398 0
 586 001c 3768     		ldr	r7, [r6, #0]
 587              		.loc 1 399 0
 588 001e CB6A     		ldr	r3, [r1, #44]
 589              		.loc 1 398 0
 590 0020 27F00F07 		bic	r7, r7, #15
 591 0024 3760     		str	r7, [r6, #0]
 592 0026 277A     		ldrb	r7, [r4, #8]	@ zero_extendqisi2
 593 0028 0F25     		movs	r5, #15
 594 002a 05FA07F7 		lsl	r7, r5, r7
 595 002e 6668     		ldr	r6, [r4, #4]
 596              		.loc 1 399 0
 597 0030 1C68     		ldr	r4, [r3, #0]
 598              		.loc 1 398 0
 599 0032 3760     		str	r7, [r6, #0]
 600              		.loc 1 399 0
 601 0034 2768     		ldr	r7, [r4, #0]
 602 0036 5E68     		ldr	r6, [r3, #4]
 603 0038 27F00F07 		bic	r7, r7, #15
 604 003c 2760     		str	r7, [r4, #0]
 605 003e 1C7A     		ldrb	r4, [r3, #8]	@ zero_extendqisi2
 606              		.loc 1 403 0
 607 0040 02F48073 		and	r3, r2, #256
 608              		.loc 1 399 0
 609 0044 05FA04F5 		lsl	r5, r5, r4
 610              		.loc 1 403 0
 611 0048 9BB2     		uxth	r3, r3
 612              		.loc 1 399 0
 613 004a 3560     		str	r5, [r6, #0]
 614              		.loc 1 403 0
 615 004c 03B1     		cbz	r3, .L75
 616              		.loc 1 404 0
 617 004e 0123     		movs	r3, #1
 618              	.L75:
ARM GAS  C:\Users\GRACEK~1\AppData\Local\Temp\ccsoh5WX.s 			page 12


 619              		.loc 1 406 0
 620 0050 02F40074 		and	r4, r2, #512
 621 0054 A4B2     		uxth	r4, r4
 622              		.loc 1 404 0
 623 0056 8B60     		str	r3, [r1, #8]
 624              		.loc 1 406 0
 625 0058 14B1     		cbz	r4, .L45
 626              		.loc 1 407 0
 627 005a 43F00203 		orr	r3, r3, #2
 628 005e 8B60     		str	r3, [r1, #8]
 629              	.L45:
 630              		.loc 1 409 0
 631 0060 02F48064 		and	r4, r2, #1024
 632 0064 A4B2     		uxth	r4, r4
 633 0066 6CB1     		cbz	r4, .L46
 634              		.loc 1 410 0
 635 0068 8488     		ldrh	r4, [r0, #4]
 636              		.loc 1 412 0
 637 006a 43F00403 		orr	r3, r3, #4
 638              		.loc 1 410 0
 639 006e 24F40074 		bic	r4, r4, #512
 640 0072 2404     		lsls	r4, r4, #16
 641 0074 240C     		lsrs	r4, r4, #16
 642 0076 8480     		strh	r4, [r0, #4]	@ movhi
 643              		.loc 1 411 0
 644 0078 0488     		ldrh	r4, [r0, #0]
 645 007a A4B2     		uxth	r4, r4
 646 007c 44F40074 		orr	r4, r4, #512
 647 0080 0480     		strh	r4, [r0, #0]	@ movhi
 648              		.loc 1 412 0
 649 0082 8B60     		str	r3, [r1, #8]
 650              	.L46:
 651              		.loc 1 415 0
 652 0084 02F40060 		and	r0, r2, #2048
 653 0088 80B2     		uxth	r0, r0
 654 008a 10B1     		cbz	r0, .L47
 655              		.loc 1 416 0
 656 008c 43F00803 		orr	r3, r3, #8
 657 0090 8B60     		str	r3, [r1, #8]
 658              	.L47:
 659              		.loc 1 418 0
 660 0092 02F48040 		and	r0, r2, #16384
 661 0096 80B2     		uxth	r0, r0
 662 0098 10B1     		cbz	r0, .L48
 663              		.loc 1 419 0
 664 009a 43F02003 		orr	r3, r3, #32
 665 009e 8B60     		str	r3, [r1, #8]
 666              	.L48:
 667              		.loc 1 421 0
 668 00a0 02F48050 		and	r0, r2, #4096
 669 00a4 80B2     		uxth	r0, r0
 670 00a6 10B1     		cbz	r0, .L49
 671              		.loc 1 422 0
 672 00a8 43F01003 		orr	r3, r3, #16
 673 00ac 8B60     		str	r3, [r1, #8]
 674              	.L49:
 675              		.loc 1 424 0
ARM GAS  C:\Users\GRACEK~1\AppData\Local\Temp\ccsoh5WX.s 			page 13


 676 00ae 1004     		lsls	r0, r2, #16
 677              		.loc 1 425 0
 678 00b0 44BF     		itt	mi
 679 00b2 43F04003 		orrmi	r3, r3, #64
 680 00b6 8B60     		strmi	r3, [r1, #8]
 681              		.loc 1 424 0
 682 00b8 04D4     		bmi	.L51
 683              		.loc 1 428 0
 684 00ba 1BB9     		cbnz	r3, .L51
 685              	.LVL45:
 686              	.L52:
 687              	.LBE41:
 688              	.LBE44:
 689              		.loc 1 463 0
 690 00bc BDE8F840 		pop	{r3, r4, r5, r6, r7, lr}
 691              		.loc 1 462 0
 692 00c0 FFF7FEBF 		b	_port_irq_epilogue
 693              	.LVL46:
 694              	.L51:
 695              	.LBB45:
 696              	.LBB42:
 697              	.LBB37:
 698              		.loc 1 429 0
 699 00c4 2023     		movs	r3, #32
 700              	.LVL47:
 701              	@ 429 "../ChibiOS_2.6.0/os/hal/platforms/STM32/I2Cv1/i2c_lld.c" 1
 702 00c6 83F31188 		msr     BASEPRI, r3
 703              	@ 0 "" 2
 704              	.LVL48:
 705              		.thumb
 706              	.LBE37:
 707 00ca C869     		ldr	r0, [r1, #28]
 708 00cc 38B1     		cbz	r0, .L53
 709              	.LVL49:
 710              	.LBB38:
 711 00ce 6FF00103 		mvn	r3, #1
 712              	.LVL50:
 713 00d2 4362     		str	r3, [r0, #36]
 714 00d4 044B     		ldr	r3, .L76
 715 00d6 0022     		movs	r2, #0
 716              	.LVL51:
 717 00d8 DA61     		str	r2, [r3, #28]
 718 00da FFF7FEFF 		bl	chSchReadyI
 719              	.LVL52:
 720              	.L53:
 721              	.LBE38:
 722              	.LBB39:
 723 00de 0023     		movs	r3, #0
 724              	.LVL53:
 725              	@ 429 "../ChibiOS_2.6.0/os/hal/platforms/STM32/I2Cv1/i2c_lld.c" 1
 726 00e0 83F31188 		msr     BASEPRI, r3
 727              	@ 0 "" 2
 728              	.LVL54:
 729              		.thumb
 730 00e4 EAE7     		b	.L52
 731              	.L77:
 732 00e6 00BF     		.align	2
ARM GAS  C:\Users\GRACEK~1\AppData\Local\Temp\ccsoh5WX.s 			page 14


 733              	.L76:
 734 00e8 00000000 		.word	.LANCHOR0
 735              	.LBE39:
 736              	.LBE42:
 737              	.LBE45:
 738              		.cfi_endproc
 739              	.LFE72:
 740              		.size	VectorC0, .-VectorC0
 741 00ec AFF30080 		.section	.text.i2c_lld_init,"ax",%progbits
 742              		.align	2
 743              		.p2align 4,,15
 744              		.global	i2c_lld_init
 745              		.thumb
 746              		.thumb_func
 747              		.type	i2c_lld_init, %function
 748              	i2c_lld_init:
 749              	.LFB73:
 750              		.loc 1 539 0
 751              		.cfi_startproc
 752              		@ args = 0, pretend = 0, frame = 0
 753              		@ frame_needed = 0, uses_anonymous_args = 0
 754 0000 10B5     		push	{r4, lr}
 755              	.LCFI6:
 756              		.cfi_def_cfa_offset 8
 757              		.cfi_offset 4, -8
 758              		.cfi_offset 14, -4
 759              		.loc 1 542 0
 760 0002 40F20004 		movw	r4, #:lower16:.LANCHOR0
 761 0006 C0F20004 		movt	r4, #:upper16:.LANCHOR0
 762 000a 2046     		mov	r0, r4
 763 000c FFF7FEFF 		bl	i2cObjectInit
 764              	.LVL55:
 765              		.loc 1 545 0
 766 0010 064B     		ldr	r3, .L79
 767              		.loc 1 544 0
 768 0012 4FF4A842 		mov	r2, #21504
 769 0016 C4F20002 		movt	r2, 16384
 770              		.loc 1 546 0
 771 001a A3F10C01 		sub	r1, r3, #12
 772              		.loc 1 543 0
 773 001e 0020     		movs	r0, #0
 774 0020 E061     		str	r0, [r4, #28]
 775              		.loc 1 544 0
 776 0022 6263     		str	r2, [r4, #52]
 777              		.loc 1 545 0
 778 0024 E362     		str	r3, [r4, #44]
 779              		.loc 1 546 0
 780 0026 2163     		str	r1, [r4, #48]
 781 0028 10BD     		pop	{r4, pc}
 782              	.L80:
 783 002a 00BF     		.align	2
 784              	.L79:
 785 002c 48000000 		.word	_stm32_dma_streams+72
 786              		.cfi_endproc
 787              	.LFE73:
 788              		.size	i2c_lld_init, .-i2c_lld_init
 789              		.section	.text.i2c_lld_start,"ax",%progbits
ARM GAS  C:\Users\GRACEK~1\AppData\Local\Temp\ccsoh5WX.s 			page 15


 790              		.align	2
 791              		.p2align 4,,15
 792              		.global	i2c_lld_start
 793              		.thumb
 794              		.thumb_func
 795              		.type	i2c_lld_start, %function
 796              	i2c_lld_start:
 797              	.LFB74:
 798              		.loc 1 573 0
 799              		.cfi_startproc
 800              		@ args = 0, pretend = 0, frame = 0
 801              		@ frame_needed = 0, uses_anonymous_args = 0
 802              	.LVL56:
 803 0000 F8B5     		push	{r3, r4, r5, r6, r7, lr}
 804              	.LCFI7:
 805              		.cfi_def_cfa_offset 24
 806              		.cfi_offset 3, -24
 807              		.cfi_offset 4, -20
 808              		.cfi_offset 5, -16
 809              		.cfi_offset 6, -12
 810              		.cfi_offset 7, -8
 811              		.cfi_offset 14, -4
 812              		.loc 1 586 0
 813 0002 0378     		ldrb	r3, [r0, #0]	@ zero_extendqisi2
 814              		.loc 1 576 0
 815 0004 9A22     		movs	r2, #154
 816 0006 8262     		str	r2, [r0, #40]
 817              		.loc 1 580 0
 818 0008 8A22     		movs	r2, #138
 819              		.loc 1 586 0
 820 000a 012B     		cmp	r3, #1
 821              		.loc 1 573 0
 822 000c 0446     		mov	r4, r0
 823              		.loc 1 580 0
 824 000e 4262     		str	r2, [r0, #36]
 825              		.loc 1 574 0
 826 0010 456B     		ldr	r5, [r0, #52]
 827              	.LVL57:
 828              		.loc 1 586 0
 829 0012 6AD0     		beq	.L95
 830              	.L92:
 831              		.loc 1 574 0
 832 0014 2A46     		mov	r2, r5
 833              	.LVL58:
 834              	.L82:
 835              		.loc 1 674 0
 836 0016 E16A     		ldr	r1, [r4, #44]
 837              		.loc 1 675 0
 838 0018 236B     		ldr	r3, [r4, #48]
 839              		.loc 1 674 0
 840 001a 0868     		ldr	r0, [r1, #0]
 841              		.loc 1 675 0
 842 001c 1968     		ldr	r1, [r3, #0]
 843              		.loc 1 674 0
 844 001e 05F11003 		add	r3, r5, #16
 845 0022 8360     		str	r3, [r0, #8]
 846              		.loc 1 675 0
ARM GAS  C:\Users\GRACEK~1\AppData\Local\Temp\ccsoh5WX.s 			page 16


 847 0024 8B60     		str	r3, [r1, #8]
 848              		.loc 1 678 0
 849 0026 4FF40043 		mov	r3, #32768
 850 002a 2B80     		strh	r3, [r5, #0]	@ movhi
 851              		.loc 1 679 0
 852 002c 0026     		movs	r6, #0
 853              		.loc 1 680 0
 854 002e 4FF41063 		mov	r3, #2304
 855              		.loc 1 679 0
 856 0032 2E80     		strh	r6, [r5, #0]	@ movhi
 857              		.loc 1 680 0
 858 0034 AB80     		strh	r3, [r5, #4]	@ movhi
 859              	.LVL59:
 860              	.LBB51:
 861              	.LBB52:
 862              		.loc 1 191 0
 863 0036 9388     		ldrh	r3, [r2, #4]
 864              		.loc 1 184 0
 865 0038 6168     		ldr	r1, [r4, #4]
 866              		.loc 1 191 0
 867 003a 23F03F03 		bic	r3, r3, #63
 868 003e 1B04     		lsls	r3, r3, #16
 869 0040 1B0C     		lsrs	r3, r3, #16
 870              		.loc 1 184 0
 871 0042 4868     		ldr	r0, [r1, #4]
 872              	.LVL60:
 873              		.loc 1 185 0
 874 0044 0F7A     		ldrb	r7, [r1, #8]	@ zero_extendqisi2
 875              	.LVL61:
 876              		.loc 1 191 0
 877 0046 9380     		strh	r3, [r2, #4]	@ movhi
 878              		.loc 1 192 0
 879 0048 9488     		ldrh	r4, [r2, #4]
 880              	.LVL62:
 881              		.loc 1 198 0
 882 004a 48F2A063 		movw	r3, #34464
 883              		.loc 1 192 0
 884 004e A4B2     		uxth	r4, r4
 885              		.loc 1 198 0
 886 0050 C0F20103 		movt	r3, 1
 887              		.loc 1 192 0
 888 0054 44F02404 		orr	r4, r4, #36
 889              		.loc 1 198 0
 890 0058 9842     		cmp	r0, r3
 891              		.loc 1 192 0
 892 005a 9480     		strh	r4, [r2, #4]	@ movhi
 893              	.LVL63:
 894              		.loc 1 198 0
 895 005c 39DD     		ble	.L96
 896              		.loc 1 218 0
 897 005e 4FF4D453 		mov	r3, #6784
 898 0062 C0F20603 		movt	r3, 6
 899 0066 9842     		cmp	r0, r3
 900              		.loc 1 195 0
 901 0068 C8BF     		it	gt
 902 006a 3046     		movgt	r0, r6
 903              	.LVL64:
ARM GAS  C:\Users\GRACEK~1\AppData\Local\Temp\ccsoh5WX.s 			page 17


 904              		.loc 1 218 0
 905 006c 18DC     		bgt	.L84
 906              		.loc 1 224 0
 907 006e 022F     		cmp	r7, #2
 908 0070 70D0     		beq	.L97
 909              		.loc 1 231 0
 910 0072 032F     		cmp	r7, #3
 911              		.loc 1 236 0
 912 0074 01BF     		itttt	eq
 913 0076 00EB8000 		addeq	r0, r0, r0, lsl #2
 914 007a 4FF4A243 		moveq	r3, #20736
 915 007e 00EB8000 		addeq	r0, r0, r0, lsl #2
 916 0082 C0F22523 		movteq	r3, 549
 917 0086 01BF     		itttt	eq
 918 0088 93FBF0F0 		sdiveq	r0, r3, r0
 919              	.LVL65:
 920 008c 6FEA8040 		mvneq	r0, r0, lsl #18
 921              	.LVL66:
 922 0090 6FEA9040 		mvneq	r0, r0, lsr #18
 923 0094 80B2     		uxtheq	r0, r0
 924              		.loc 1 231 0
 925 0096 18BF     		it	ne
 926 0098 48F6FF70 		movwne	r0, #36863
 927              	.LVL67:
 928              	.L86:
 929              		.loc 1 246 0
 930 009c 0B23     		movs	r3, #11
 931 009e 1384     		strh	r3, [r2, #32]	@ movhi
 932              	.LVL68:
 933              	.L84:
 934              		.loc 1 252 0
 935 00a0 9083     		strh	r0, [r2, #28]	@ movhi
 936              	.LVL69:
 937              	.LBE52:
 938              	.LBE51:
 939              	.LBB55:
 940              	.LBB56:
 941              		.loc 1 268 0
 942 00a2 0978     		ldrb	r1, [r1, #0]	@ zero_extendqisi2
 943              	.LVL70:
 944              		.loc 1 267 0
 945 00a4 1388     		ldrh	r3, [r2, #0]
 946              		.loc 1 268 0
 947 00a6 0229     		cmp	r1, #2
 948              		.loc 1 267 0
 949 00a8 9BB2     		uxth	r3, r3
 950              	.LVL71:
 951              		.loc 1 268 0
 952 00aa 4DD0     		beq	.L89
 953 00ac 0329     		cmp	r1, #3
 954              		.loc 1 277 0
 955 00ae 08BF     		it	eq
 956 00b0 43F00A03 		orreq	r3, r3, #10
 957              	.LVL72:
 958              		.loc 1 268 0
 959 00b4 01D0     		beq	.L87
 960 00b6 0129     		cmp	r1, #1
ARM GAS  C:\Users\GRACEK~1\AppData\Local\Temp\ccsoh5WX.s 			page 18


 961 00b8 06D0     		beq	.L98
 962              	.L87:
 963              	.LVL73:
 964              		.loc 1 280 0
 965 00ba 1380     		strh	r3, [r2, #0]	@ movhi
 966              	.LBE56:
 967              	.LBE55:
 968              		.loc 1 687 0
 969 00bc 2B88     		ldrh	r3, [r5, #0]
 970              	.LVL74:
 971 00be 9BB2     		uxth	r3, r3
 972 00c0 43F00103 		orr	r3, r3, #1
 973 00c4 2B80     		strh	r3, [r5, #0]	@ movhi
 974 00c6 F8BD     		pop	{r3, r4, r5, r6, r7, pc}
 975              	.L98:
 976              	.LBB59:
 977              	.LBB57:
 978              		.loc 1 270 0
 979 00c8 23F00A03 		bic	r3, r3, #10
 980 00cc 1B04     		lsls	r3, r3, #16
 981 00ce 1B0C     		lsrs	r3, r3, #16
 982              	.LVL75:
 983 00d0 F3E7     		b	.L87
 984              	.LVL76:
 985              	.L96:
 986              	.LBE57:
 987              	.LBE59:
 988              	.LBB60:
 989              	.LBB53:
 990              		.loc 1 208 0
 991 00d2 4FF4A243 		mov	r3, #20736
 992 00d6 C0F22523 		movt	r3, 549
 993 00da 4000     		lsls	r0, r0, #1
 994              	.LVL77:
 995 00dc 93FBF0F0 		sdiv	r0, r3, r0
 996              		.loc 1 213 0
 997 00e0 0005     		lsls	r0, r0, #20
 998              		.loc 1 216 0
 999 00e2 2523     		movs	r3, #37
 1000              		.loc 1 213 0
 1001 00e4 000D     		lsrs	r0, r0, #20
 1002              	.LVL78:
 1003              		.loc 1 216 0
 1004 00e6 1384     		strh	r3, [r2, #32]	@ movhi
 1005 00e8 DAE7     		b	.L84
 1006              	.LVL79:
 1007              	.L95:
 1008              	.LBE53:
 1009              	.LBE60:
 1010              		.loc 1 589 0
 1011 00ea 214B     		ldr	r3, .L99
 1012 00ec 9842     		cmp	r0, r3
 1013 00ee 91D1     		bne	.L92
 1014              	.LBB61:
 1015              		.loc 1 592 0
 1016 00f0 4FF48056 		mov	r6, #4096
 1017 00f4 C4F20206 		movt	r6, 16386
ARM GAS  C:\Users\GRACEK~1\AppData\Local\Temp\ccsoh5WX.s 			page 19


 1018 00f8 3369     		ldr	r3, [r6, #16]
 1019              		.loc 1 593 0
 1020 00fa 0A21     		movs	r1, #10
 1021              		.loc 1 592 0
 1022 00fc 43F40013 		orr	r3, r3, #2097152
 1023 0100 3361     		str	r3, [r6, #16]
 1024              		.loc 1 593 0
 1025 0102 0346     		mov	r3, r0
 1026              		.loc 1 592 0
 1027 0104 0020     		movs	r0, #0
 1028              	.LVL80:
 1029              		.loc 1 593 0
 1030 0106 1B4A     		ldr	r2, .L99+4
 1031              		.loc 1 592 0
 1032 0108 3061     		str	r0, [r6, #16]
 1033              		.loc 1 593 0
 1034 010a E06A     		ldr	r0, [r4, #44]
 1035 010c FFF7FEFF 		bl	dmaStreamAllocate
 1036              	.LVL81:
 1037              		.loc 1 598 0
 1038 0110 194A     		ldr	r2, .L99+8
 1039 0112 2346     		mov	r3, r4
 1040 0114 0A21     		movs	r1, #10
 1041 0116 206B     		ldr	r0, [r4, #48]
 1042 0118 FFF7FEFF 		bl	dmaStreamAllocate
 1043              	.LVL82:
 1044              		.loc 1 603 0
 1045 011c F369     		ldr	r3, [r6, #28]
 1046              		.loc 1 604 0
 1047 011e 1F20     		movs	r0, #31
 1048              		.loc 1 603 0
 1049 0120 43F40013 		orr	r3, r3, #2097152
 1050 0124 F361     		str	r3, [r6, #28]
 1051              		.loc 1 604 0
 1052 0126 A021     		movs	r1, #160
 1053 0128 FFF7FEFF 		bl	nvicEnableVector
 1054              	.LVL83:
 1055              		.loc 1 606 0
 1056 012c 2020     		movs	r0, #32
 1057 012e A021     		movs	r1, #160
 1058 0130 FFF7FEFF 		bl	nvicEnableVector
 1059              	.LVL84:
 1060              		.loc 1 609 0
 1061 0134 626A     		ldr	r2, [r4, #36]
 1062              		.loc 1 611 0
 1063 0136 A36A     		ldr	r3, [r4, #40]
 1064              		.loc 1 609 0
 1065 0138 42F48052 		orr	r2, r2, #4096
 1066              		.loc 1 611 0
 1067 013c 43F48053 		orr	r3, r3, #4096
 1068              		.loc 1 609 0
 1069 0140 6262     		str	r2, [r4, #36]
 1070              		.loc 1 611 0
 1071 0142 A362     		str	r3, [r4, #40]
 1072 0144 626B     		ldr	r2, [r4, #52]
 1073 0146 66E7     		b	.L82
 1074              	.LVL85:
ARM GAS  C:\Users\GRACEK~1\AppData\Local\Temp\ccsoh5WX.s 			page 20


 1075              	.L89:
 1076              	.LBE61:
 1077              	.LBB62:
 1078              		.loc 1 274 0
 1079 0148 4FF6F771 		movw	r1, #65527
 1080 014c 1940     		ands	r1, r1, r3
 1081              	.LBB58:
 1082 014e 41F00203 		orr	r3, r1, #2
 1083              	.LVL86:
 1084 0152 B2E7     		b	.L87
 1085              	.LVL87:
 1086              	.L97:
 1087              	.LBE58:
 1088              	.LBE62:
 1089              	.LBB63:
 1090              	.LBB54:
 1091              		.loc 1 229 0
 1092 0154 4FF4A243 		mov	r3, #20736
 1093 0158 00EB4000 		add	r0, r0, r0, lsl #1
 1094 015c C0F22523 		movt	r3, 549
 1095 0160 93FBF0F0 		sdiv	r0, r3, r0
 1096              	.LVL88:
 1097 0164 6FEA4040 		mvn	r0, r0, lsl #17
 1098              	.LVL89:
 1099 0168 6FEA5040 		mvn	r0, r0, lsr #17
 1100 016c 80B2     		uxth	r0, r0
 1101 016e 95E7     		b	.L86
 1102              	.L100:
 1103              		.align	2
 1104              	.L99:
 1105 0170 00000000 		.word	.LANCHOR0
 1106 0174 00000000 		.word	i2c_lld_serve_rx_end_irq
 1107 0178 00000000 		.word	i2c_lld_serve_tx_end_irq
 1108              	.LBE54:
 1109              	.LBE63:
 1110              		.cfi_endproc
 1111              	.LFE74:
 1112              		.size	i2c_lld_start, .-i2c_lld_start
 1113 017c AFF30080 		.section	.text.i2c_lld_stop,"ax",%progbits
 1114              		.align	2
 1115              		.p2align 4,,15
 1116              		.global	i2c_lld_stop
 1117              		.thumb
 1118              		.thumb_func
 1119              		.type	i2c_lld_stop, %function
 1120              	i2c_lld_stop:
 1121              	.LFB75:
 1122              		.loc 1 697 0
 1123              		.cfi_startproc
 1124              		@ args = 0, pretend = 0, frame = 0
 1125              		@ frame_needed = 0, uses_anonymous_args = 0
 1126              	.LVL90:
 1127              		.loc 1 700 0
 1128 0000 0378     		ldrb	r3, [r0, #0]	@ zero_extendqisi2
 1129              		.loc 1 697 0
 1130 0002 10B5     		push	{r4, lr}
 1131              	.LCFI8:
ARM GAS  C:\Users\GRACEK~1\AppData\Local\Temp\ccsoh5WX.s 			page 21


 1132              		.cfi_def_cfa_offset 8
 1133              		.cfi_offset 4, -8
 1134              		.cfi_offset 14, -4
 1135              		.loc 1 700 0
 1136 0004 012B     		cmp	r3, #1
 1137              		.loc 1 697 0
 1138 0006 0446     		mov	r4, r0
 1139              		.loc 1 700 0
 1140 0008 0AD0     		beq	.L101
 1141              		.loc 1 703 0
 1142 000a FFF7FEFF 		bl	i2c_lld_abort_operation
 1143              	.LVL91:
 1144              		.loc 1 704 0
 1145 000e 206B     		ldr	r0, [r4, #48]
 1146 0010 FFF7FEFF 		bl	dmaStreamRelease
 1147              	.LVL92:
 1148              		.loc 1 705 0
 1149 0014 E06A     		ldr	r0, [r4, #44]
 1150 0016 FFF7FEFF 		bl	dmaStreamRelease
 1151              	.LVL93:
 1152              		.loc 1 708 0
 1153 001a 094B     		ldr	r3, .L106
 1154 001c 9C42     		cmp	r4, r3
 1155 001e 00D0     		beq	.L105
 1156              	.L101:
 1157 0020 10BD     		pop	{r4, pc}
 1158              	.L105:
 1159              		.loc 1 709 0
 1160 0022 1F20     		movs	r0, #31
 1161 0024 FFF7FEFF 		bl	nvicDisableVector
 1162              	.LVL94:
 1163              		.loc 1 710 0
 1164 0028 2020     		movs	r0, #32
 1165 002a FFF7FEFF 		bl	nvicDisableVector
 1166              	.LVL95:
 1167              		.loc 1 711 0
 1168 002e 4FF48053 		mov	r3, #4096
 1169 0032 C4F20203 		movt	r3, 16386
 1170 0036 DA69     		ldr	r2, [r3, #28]
 1171 0038 22F40012 		bic	r2, r2, #2097152
 1172 003c DA61     		str	r2, [r3, #28]
 1173 003e EFE7     		b	.L101
 1174              	.L107:
 1175              		.align	2
 1176              	.L106:
 1177 0040 00000000 		.word	.LANCHOR0
 1178              		.cfi_endproc
 1179              	.LFE75:
 1180              		.size	i2c_lld_stop, .-i2c_lld_stop
 1181 0044 AFF30080 		.section	.text.i2c_lld_master_receive_timeout,"ax",%progbits
 1181      AFF30080 
 1181      AFF30080 
 1182              		.align	2
 1183              		.p2align 4,,15
 1184              		.global	i2c_lld_master_receive_timeout
 1185              		.thumb
 1186              		.thumb_func
ARM GAS  C:\Users\GRACEK~1\AppData\Local\Temp\ccsoh5WX.s 			page 22


 1187              		.type	i2c_lld_master_receive_timeout, %function
 1188              	i2c_lld_master_receive_timeout:
 1189              	.LFB76:
 1190              		.loc 1 758 0
 1191              		.cfi_startproc
 1192              		@ args = 4, pretend = 0, frame = 24
 1193              		@ frame_needed = 0, uses_anonymous_args = 0
 1194              	.LVL96:
 1195 0000 2DE9F046 		push	{r4, r5, r6, r7, r9, sl, lr}
 1196              	.LCFI9:
 1197              		.cfi_def_cfa_offset 28
 1198              		.cfi_offset 4, -28
 1199              		.cfi_offset 5, -24
 1200              		.cfi_offset 6, -20
 1201              		.cfi_offset 7, -16
 1202              		.cfi_offset 9, -12
 1203              		.cfi_offset 10, -8
 1204              		.cfi_offset 14, -4
 1205 0004 87B0     		sub	sp, sp, #28
 1206              	.LCFI10:
 1207              		.cfi_def_cfa_offset 56
 1208              		.loc 1 758 0
 1209 0006 0E9D     		ldr	r5, [sp, #56]
 1210 0008 8A46     		mov	sl, r1
 1211              		.loc 1 767 0
 1212 000a 691C     		adds	r1, r5, #1
 1213              	.LVL97:
 1214              		.loc 1 758 0
 1215 000c 0646     		mov	r6, r0
 1216 000e 9146     		mov	r9, r2
 1217 0010 1F46     		mov	r7, r3
 1218              		.loc 1 759 0
 1219 0012 446B     		ldr	r4, [r0, #52]
 1220              	.LVL98:
 1221              		.loc 1 767 0
 1222 0014 05D0     		beq	.L109
 1223              		.loc 1 768 0
 1224 0016 01A8     		add	r0, sp, #4
 1225              	.LVL99:
 1226 0018 2946     		mov	r1, r5
 1227 001a 304A     		ldr	r2, .L131
 1228              	.LVL100:
 1229 001c 3346     		mov	r3, r6
 1230              	.LVL101:
 1231 001e FFF7FEFF 		bl	chVTSetI
 1232              	.LVL102:
 1233              	.L109:
 1234              	.LBB64:
 1235              		.loc 1 771 0
 1236 0022 0023     		movs	r3, #0
 1237              	.LVL103:
 1238              	@ 771 "../ChibiOS_2.6.0/os/hal/platforms/STM32/I2Cv1/i2c_lld.c" 1
 1239 0024 83F31188 		msr     BASEPRI, r3
 1240              	@ 0 "" 2
 1241              	.LVL104:
 1242              		.thumb
 1243              	.LBE64:
ARM GAS  C:\Users\GRACEK~1\AppData\Local\Temp\ccsoh5WX.s 			page 23


 1244              		.loc 1 778 0
 1245 0028 F06A     		ldr	r0, [r6, #44]
 1246 002a 726A     		ldr	r2, [r6, #36]
 1247 002c 0068     		ldr	r0, [r0, #0]
 1248              		.loc 1 774 0
 1249 002e 4FEA4A0A 		lsl	sl, sl, #1
 1250 0032 4AF0010A 		orr	sl, sl, #1
 1251 0036 A6F820A0 		strh	sl, [r6, #32]	@ movhi
 1252              		.loc 1 775 0
 1253 003a B360     		str	r3, [r6, #8]
 1254              	.LVL105:
 1255              		.loc 1 778 0
 1256 003c 0260     		str	r2, [r0, #0]
 1257              		.loc 1 779 0
 1258 003e C0F80C90 		str	r9, [r0, #12]
 1259              		.loc 1 780 0
 1260 0042 4760     		str	r7, [r0, #4]
 1261              		.loc 1 784 0
 1262 0044 02E0     		b	.L110
 1263              	.LVL106:
 1264              	.L111:
 1265              	.LBB65:
 1266              		.loc 1 788 0
 1267 0046 0023     		movs	r3, #0
 1268              	.LVL107:
 1269              	@ 788 "../ChibiOS_2.6.0/os/hal/platforms/STM32/I2Cv1/i2c_lld.c" 1
 1270 0048 83F31188 		msr     BASEPRI, r3
 1271              	@ 0 "" 2
 1272              	.LVL108:
 1273              		.thumb
 1274              	.L110:
 1275              	.LBE65:
 1276              		.loc 1 784 0 discriminator 1
 1277 004c 228B     		ldrh	r2, [r4, #24]
 1278              	.LBB66:
 1279              		.loc 1 785 0 discriminator 1
 1280 004e 2023     		movs	r3, #32
 1281              	.LVL109:
 1282              	.LBE66:
 1283              		.loc 1 784 0 discriminator 1
 1284 0050 02F00202 		and	r2, r2, #2
 1285 0054 92B2     		uxth	r2, r2
 1286 0056 22B9     		cbnz	r2, .L113
 1287              		.loc 1 784 0 is_stmt 0 discriminator 2
 1288 0058 2288     		ldrh	r2, [r4, #0]
 1289 005a 02F40072 		and	r2, r2, #512
 1290 005e 92B2     		uxth	r2, r2
 1291 0060 5AB1     		cbz	r2, .L130
 1292              	.L113:
 1293              	.LBB67:
 1294              		.loc 1 785 0 is_stmt 1
 1295              	@ 785 "../ChibiOS_2.6.0/os/hal/platforms/STM32/I2Cv1/i2c_lld.c" 1
 1296 0062 83F31188 		msr     BASEPRI, r3
 1297              	@ 0 "" 2
 1298              	.LVL110:
 1299              		.thumb
 1300              	.LBE67:
ARM GAS  C:\Users\GRACEK~1\AppData\Local\Temp\ccsoh5WX.s 			page 24


 1301              		.loc 1 786 0
 1302 0066 6A1C     		adds	r2, r5, #1
 1303 0068 EDD0     		beq	.L111
 1304              		.loc 1 786 0 is_stmt 0 discriminator 1
 1305 006a 049A     		ldr	r2, [sp, #16]
 1306 006c 002A     		cmp	r2, #0
 1307 006e EAD1     		bne	.L111
 1308              	.L115:
 1309              		.loc 1 787 0 is_stmt 1
 1310 0070 4FF0FF30 		mov	r0, #-1
 1311              	.L128:
 1312              		.loc 1 810 0
 1313 0074 07B0     		add	sp, sp, #28
 1314 0076 BDE8F086 		pop	{r4, r5, r6, r7, r9, sl, pc}
 1315              	.LVL111:
 1316              	.L130:
 1317              	.LBB68:
 1318              		.loc 1 792 0
 1319              	@ 792 "../ChibiOS_2.6.0/os/hal/platforms/STM32/I2Cv1/i2c_lld.c" 1
 1320 007a 83F31188 		msr     BASEPRI, r3
 1321              	@ 0 "" 2
 1322              	.LVL112:
 1323              		.thumb
 1324              	.LBE68:
 1325              		.loc 1 796 0
 1326 007e 6B1C     		adds	r3, r5, #1
 1327              	.LVL113:
 1328 0080 1AD0     		beq	.L114
 1329              		.loc 1 796 0 is_stmt 0 discriminator 1
 1330 0082 049B     		ldr	r3, [sp, #16]
 1331 0084 002B     		cmp	r3, #0
 1332 0086 F3D0     		beq	.L115
 1333              		.loc 1 800 0 is_stmt 1
 1334 0088 A388     		ldrh	r3, [r4, #4]
 1335              		.loc 1 804 0
 1336 008a 154D     		ldr	r5, .L131+4
 1337              		.loc 1 800 0
 1338 008c 9BB2     		uxth	r3, r3
 1339 008e 43F40073 		orr	r3, r3, #512
 1340 0092 A380     		strh	r3, [r4, #4]	@ movhi
 1341              		.loc 1 801 0
 1342 0094 2288     		ldrh	r2, [r4, #0]
 1343              		.loc 1 804 0
 1344 0096 AB69     		ldr	r3, [r5, #24]
 1345              		.loc 1 801 0
 1346 0098 92B2     		uxth	r2, r2
 1347 009a 42F4A062 		orr	r2, r2, #1280
 1348 009e 2280     		strh	r2, [r4, #0]	@ movhi
 1349              		.loc 1 805 0
 1350 00a0 0220     		movs	r0, #2
 1351              		.loc 1 804 0
 1352 00a2 F361     		str	r3, [r6, #28]
 1353              		.loc 1 805 0
 1354 00a4 FFF7FEFF 		bl	chSchGoSleepS
 1355              	.LVL114:
 1356              		.loc 1 806 0
 1357 00a8 049B     		ldr	r3, [sp, #16]
ARM GAS  C:\Users\GRACEK~1\AppData\Local\Temp\ccsoh5WX.s 			page 25


 1358 00aa 13B1     		cbz	r3, .L117
 1359              		.loc 1 807 0
 1360 00ac 01A8     		add	r0, sp, #4
 1361 00ae FFF7FEFF 		bl	chVTResetI
 1362              	.LVL115:
 1363              	.L117:
 1364              		.loc 1 809 0
 1365 00b2 AB69     		ldr	r3, [r5, #24]
 1366 00b4 586A     		ldr	r0, [r3, #36]
 1367 00b6 DDE7     		b	.L128
 1368              	.L114:
 1369              		.loc 1 800 0
 1370 00b8 A388     		ldrh	r3, [r4, #4]
 1371              		.loc 1 804 0
 1372 00ba 094D     		ldr	r5, .L131+4
 1373              		.loc 1 800 0
 1374 00bc 9BB2     		uxth	r3, r3
 1375 00be 43F40073 		orr	r3, r3, #512
 1376 00c2 A380     		strh	r3, [r4, #4]	@ movhi
 1377              		.loc 1 801 0
 1378 00c4 2288     		ldrh	r2, [r4, #0]
 1379              		.loc 1 804 0
 1380 00c6 AB69     		ldr	r3, [r5, #24]
 1381              		.loc 1 801 0
 1382 00c8 92B2     		uxth	r2, r2
 1383 00ca 42F4A062 		orr	r2, r2, #1280
 1384 00ce 2280     		strh	r2, [r4, #0]	@ movhi
 1385              		.loc 1 805 0
 1386 00d0 0220     		movs	r0, #2
 1387              		.loc 1 804 0
 1388 00d2 F361     		str	r3, [r6, #28]
 1389              		.loc 1 805 0
 1390 00d4 FFF7FEFF 		bl	chSchGoSleepS
 1391              	.LVL116:
 1392 00d8 EBE7     		b	.L117
 1393              	.L132:
 1394 00da 00BF     		.align	2
 1395              	.L131:
 1396 00dc 00000000 		.word	i2c_lld_safety_timeout
 1397 00e0 00000000 		.word	rlist
 1398              		.cfi_endproc
 1399              	.LFE76:
 1400              		.size	i2c_lld_master_receive_timeout, .-i2c_lld_master_receive_timeout
 1401 00e4 AFF30080 		.section	.text.i2c_lld_master_transmit_timeout,"ax",%progbits
 1401      AFF30080 
 1401      AFF30080 
 1402              		.align	2
 1403              		.p2align 4,,15
 1404              		.global	i2c_lld_master_transmit_timeout
 1405              		.thumb
 1406              		.thumb_func
 1407              		.type	i2c_lld_master_transmit_timeout, %function
 1408              	i2c_lld_master_transmit_timeout:
 1409              	.LFB77:
 1410              		.loc 1 840 0
 1411              		.cfi_startproc
 1412              		@ args = 12, pretend = 0, frame = 24
ARM GAS  C:\Users\GRACEK~1\AppData\Local\Temp\ccsoh5WX.s 			page 26


 1413              		@ frame_needed = 0, uses_anonymous_args = 0
 1414              	.LVL117:
 1415 0000 2DE9F046 		push	{r4, r5, r6, r7, r9, sl, lr}
 1416              	.LCFI11:
 1417              		.cfi_def_cfa_offset 28
 1418              		.cfi_offset 4, -28
 1419              		.cfi_offset 5, -24
 1420              		.cfi_offset 6, -20
 1421              		.cfi_offset 7, -16
 1422              		.cfi_offset 9, -12
 1423              		.cfi_offset 10, -8
 1424              		.cfi_offset 14, -4
 1425 0004 87B0     		sub	sp, sp, #28
 1426              	.LCFI12:
 1427              		.cfi_def_cfa_offset 56
 1428              		.loc 1 840 0
 1429 0006 109D     		ldr	r5, [sp, #64]
 1430 0008 9146     		mov	r9, r2
 1431              		.loc 1 850 0
 1432 000a 6A1C     		adds	r2, r5, #1
 1433              	.LVL118:
 1434              		.loc 1 840 0
 1435 000c 0646     		mov	r6, r0
 1436 000e 8A46     		mov	sl, r1
 1437 0010 1F46     		mov	r7, r3
 1438              		.loc 1 841 0
 1439 0012 446B     		ldr	r4, [r0, #52]
 1440              	.LVL119:
 1441              		.loc 1 850 0
 1442 0014 05D0     		beq	.L134
 1443              		.loc 1 851 0
 1444 0016 01A8     		add	r0, sp, #4
 1445              	.LVL120:
 1446 0018 2946     		mov	r1, r5
 1447              	.LVL121:
 1448 001a 334A     		ldr	r2, .L156
 1449 001c 3346     		mov	r3, r6
 1450              	.LVL122:
 1451 001e FFF7FEFF 		bl	chVTSetI
 1452              	.LVL123:
 1453              	.L134:
 1454              	.LBB69:
 1455              		.loc 1 854 0
 1456 0022 0023     		movs	r3, #0
 1457              	.LVL124:
 1458              	@ 854 "../ChibiOS_2.6.0/os/hal/platforms/STM32/I2Cv1/i2c_lld.c" 1
 1459 0024 83F31188 		msr     BASEPRI, r3
 1460              	@ 0 "" 2
 1461              	.LVL125:
 1462              		.thumb
 1463              	.LBE69:
 1464              		.loc 1 866 0
 1465 0028 F16A     		ldr	r1, [r6, #44]
 1466              		.loc 1 861 0
 1467 002a 326B     		ldr	r2, [r6, #48]
 1468              		.loc 1 866 0
 1469 002c 0868     		ldr	r0, [r1, #0]
ARM GAS  C:\Users\GRACEK~1\AppData\Local\Temp\ccsoh5WX.s 			page 27


 1470              		.loc 1 861 0
 1471 002e 1268     		ldr	r2, [r2, #0]
 1472              		.loc 1 858 0
 1473 0030 B360     		str	r3, [r6, #8]
 1474              	.LVL126:
 1475              		.loc 1 861 0
 1476 0032 B36A     		ldr	r3, [r6, #40]
 1477              		.loc 1 857 0
 1478 0034 4FEA4A0A 		lsl	sl, sl, #1
 1479              		.loc 1 866 0
 1480 0038 716A     		ldr	r1, [r6, #36]
 1481              		.loc 1 857 0
 1482 003a A6F820A0 		strh	sl, [r6, #32]	@ movhi
 1483              		.loc 1 861 0
 1484 003e 1360     		str	r3, [r2, #0]
 1485              		.loc 1 867 0
 1486 0040 0E9B     		ldr	r3, [sp, #56]
 1487              		.loc 1 862 0
 1488 0042 C2F80C90 		str	r9, [r2, #12]
 1489              		.loc 1 863 0
 1490 0046 5760     		str	r7, [r2, #4]
 1491              		.loc 1 866 0
 1492 0048 0160     		str	r1, [r0, #0]
 1493              		.loc 1 867 0
 1494 004a C360     		str	r3, [r0, #12]
 1495              		.loc 1 868 0
 1496 004c 0F9B     		ldr	r3, [sp, #60]
 1497 004e 4360     		str	r3, [r0, #4]
 1498              		.loc 1 872 0
 1499 0050 02E0     		b	.L135
 1500              	.L136:
 1501              	.LBB70:
 1502              		.loc 1 876 0
 1503 0052 0023     		movs	r3, #0
 1504              	.LVL127:
 1505              	@ 876 "../ChibiOS_2.6.0/os/hal/platforms/STM32/I2Cv1/i2c_lld.c" 1
 1506 0054 83F31188 		msr     BASEPRI, r3
 1507              	@ 0 "" 2
 1508              	.LVL128:
 1509              		.thumb
 1510              	.L135:
 1511              	.LBE70:
 1512              		.loc 1 872 0 discriminator 1
 1513 0058 228B     		ldrh	r2, [r4, #24]
 1514              	.LBB71:
 1515              		.loc 1 873 0 discriminator 1
 1516 005a 2023     		movs	r3, #32
 1517              	.LVL129:
 1518              	.LBE71:
 1519              		.loc 1 872 0 discriminator 1
 1520 005c 02F00202 		and	r2, r2, #2
 1521 0060 92B2     		uxth	r2, r2
 1522 0062 22B9     		cbnz	r2, .L138
 1523              		.loc 1 872 0 is_stmt 0 discriminator 2
 1524 0064 2288     		ldrh	r2, [r4, #0]
 1525 0066 02F40072 		and	r2, r2, #512
 1526 006a 92B2     		uxth	r2, r2
ARM GAS  C:\Users\GRACEK~1\AppData\Local\Temp\ccsoh5WX.s 			page 28


 1527 006c 5AB1     		cbz	r2, .L155
 1528              	.L138:
 1529              	.LBB72:
 1530              		.loc 1 873 0 is_stmt 1
 1531              	@ 873 "../ChibiOS_2.6.0/os/hal/platforms/STM32/I2Cv1/i2c_lld.c" 1
 1532 006e 83F31188 		msr     BASEPRI, r3
 1533              	@ 0 "" 2
 1534              	.LVL130:
 1535              		.thumb
 1536              	.LBE72:
 1537              		.loc 1 874 0
 1538 0072 6B1C     		adds	r3, r5, #1
 1539              	.LVL131:
 1540 0074 EDD0     		beq	.L136
 1541              		.loc 1 874 0 is_stmt 0 discriminator 1
 1542 0076 049A     		ldr	r2, [sp, #16]
 1543 0078 002A     		cmp	r2, #0
 1544 007a EAD1     		bne	.L136
 1545              	.L140:
 1546              		.loc 1 875 0 is_stmt 1
 1547 007c 4FF0FF30 		mov	r0, #-1
 1548              	.L153:
 1549              		.loc 1 898 0
 1550 0080 07B0     		add	sp, sp, #28
 1551 0082 BDE8F086 		pop	{r4, r5, r6, r7, r9, sl, pc}
 1552              	.L155:
 1553              	.LBB73:
 1554              		.loc 1 880 0
 1555              	@ 880 "../ChibiOS_2.6.0/os/hal/platforms/STM32/I2Cv1/i2c_lld.c" 1
 1556 0086 83F31188 		msr     BASEPRI, r3
 1557              	@ 0 "" 2
 1558              	.LVL132:
 1559              		.thumb
 1560              	.LBE73:
 1561              		.loc 1 884 0
 1562 008a 681C     		adds	r0, r5, #1
 1563 008c 1AD0     		beq	.L139
 1564              		.loc 1 884 0 is_stmt 0 discriminator 1
 1565 008e 049B     		ldr	r3, [sp, #16]
 1566              	.LVL133:
 1567 0090 002B     		cmp	r3, #0
 1568 0092 F3D0     		beq	.L140
 1569              		.loc 1 888 0 is_stmt 1
 1570 0094 A388     		ldrh	r3, [r4, #4]
 1571              		.loc 1 892 0
 1572 0096 154D     		ldr	r5, .L156+4
 1573              		.loc 1 888 0
 1574 0098 9BB2     		uxth	r3, r3
 1575 009a 43F40073 		orr	r3, r3, #512
 1576 009e A380     		strh	r3, [r4, #4]	@ movhi
 1577              		.loc 1 889 0
 1578 00a0 2288     		ldrh	r2, [r4, #0]
 1579              		.loc 1 892 0
 1580 00a2 AB69     		ldr	r3, [r5, #24]
 1581              		.loc 1 889 0
 1582 00a4 92B2     		uxth	r2, r2
 1583 00a6 42F48072 		orr	r2, r2, #256
ARM GAS  C:\Users\GRACEK~1\AppData\Local\Temp\ccsoh5WX.s 			page 29


 1584 00aa 2280     		strh	r2, [r4, #0]	@ movhi
 1585              		.loc 1 893 0
 1586 00ac 0220     		movs	r0, #2
 1587              		.loc 1 892 0
 1588 00ae F361     		str	r3, [r6, #28]
 1589              		.loc 1 893 0
 1590 00b0 FFF7FEFF 		bl	chSchGoSleepS
 1591              	.LVL134:
 1592              		.loc 1 894 0
 1593 00b4 049B     		ldr	r3, [sp, #16]
 1594 00b6 13B1     		cbz	r3, .L142
 1595              		.loc 1 895 0
 1596 00b8 01A8     		add	r0, sp, #4
 1597 00ba FFF7FEFF 		bl	chVTResetI
 1598              	.LVL135:
 1599              	.L142:
 1600              		.loc 1 897 0
 1601 00be AB69     		ldr	r3, [r5, #24]
 1602 00c0 586A     		ldr	r0, [r3, #36]
 1603 00c2 DDE7     		b	.L153
 1604              	.LVL136:
 1605              	.L139:
 1606              		.loc 1 888 0
 1607 00c4 A388     		ldrh	r3, [r4, #4]
 1608              	.LVL137:
 1609              		.loc 1 892 0
 1610 00c6 094D     		ldr	r5, .L156+4
 1611              		.loc 1 888 0
 1612 00c8 9BB2     		uxth	r3, r3
 1613 00ca 43F40073 		orr	r3, r3, #512
 1614 00ce A380     		strh	r3, [r4, #4]	@ movhi
 1615              		.loc 1 889 0
 1616 00d0 2288     		ldrh	r2, [r4, #0]
 1617              		.loc 1 892 0
 1618 00d2 AB69     		ldr	r3, [r5, #24]
 1619              		.loc 1 889 0
 1620 00d4 92B2     		uxth	r2, r2
 1621 00d6 42F48072 		orr	r2, r2, #256
 1622 00da 2280     		strh	r2, [r4, #0]	@ movhi
 1623              		.loc 1 893 0
 1624 00dc 0220     		movs	r0, #2
 1625              		.loc 1 892 0
 1626 00de F361     		str	r3, [r6, #28]
 1627              		.loc 1 893 0
 1628 00e0 FFF7FEFF 		bl	chSchGoSleepS
 1629              	.LVL138:
 1630 00e4 EBE7     		b	.L142
 1631              	.L157:
 1632 00e6 00BF     		.align	2
 1633              	.L156:
 1634 00e8 00000000 		.word	i2c_lld_safety_timeout
 1635 00ec 00000000 		.word	rlist
 1636              		.cfi_endproc
 1637              	.LFE77:
 1638              		.size	i2c_lld_master_transmit_timeout, .-i2c_lld_master_transmit_timeout
 1639              		.global	I2CD1
 1640              		.section	.bss.I2CD1,"aw",%nobits
ARM GAS  C:\Users\GRACEK~1\AppData\Local\Temp\ccsoh5WX.s 			page 30


 1641              		.align	2
 1642              		.set	.LANCHOR0,. + 0
 1643              		.type	I2CD1, %object
 1644              		.size	I2CD1, 56
 1645              	I2CD1:
 1646 0000 00000000 		.space	56
 1646      00000000 
 1646      00000000 
 1646      00000000 
 1646      00000000 
 1647              		.text
 1648              	.Letext0:
 1649              		.file 2 "c:\\program files\\pros\\toolchain\\bin\\../lib/gcc/arm-none-eabi/4.7.1/include/stddef.h"
 1650              		.file 3 "c:/program files/pros/toolchain/lib/gcc/../../arm-none-eabi/include/stdint.h"
 1651              		.file 4 "../ChibiOS_2.6.0/os/ports/GCC/ARMCMx/chtypes.h"
 1652              		.file 5 "../ChibiOS_2.6.0/os/kernel/include/chlists.h"
 1653              		.file 6 "../ChibiOS_2.6.0/os/kernel/include/chthreads.h"
 1654              		.file 7 "../ChibiOS_2.6.0/os/ports/GCC/ARMCMx/chcore_v7m.h"
 1655              		.file 8 "../ChibiOS_2.6.0/os/kernel/include/chvt.h"
 1656              		.file 9 "../ChibiOS_2.6.0/os/kernel/include/chschd.h"
 1657              		.file 10 "../ChibiOS_2.6.0/os/kernel/include/chmtx.h"
 1658              		.file 11 "../ChibiOS_2.6.0/os/hal/platforms/STM32F1xx/stm32f10x.h"
 1659              		.file 12 "../ChibiOS_2.6.0/os/hal/platforms/STM32F1xx/stm32_dma.h"
 1660              		.file 13 "../ChibiOS_2.6.0/os/hal/include/i2c.h"
 1661              		.file 14 "../ChibiOS_2.6.0/os/hal/platforms/STM32/I2Cv1/i2c_lld.h"
 1662              		.file 15 "../ChibiOS_2.6.0/os/ports/common/ARMCMx/CMSIS/include/core_cm3.h"
 1663              		.file 16 "../ChibiOS_2.6.0/os/ports/common/ARMCMx/nvic.h"