ARM GAS  C:\Users\GRACEK~1\AppData\Local\Temp\cc0yJ40f.s 			page 1


   1              		.syntax unified
   2              		.cpu cortex-m3
   3              		.fpu softvfp
   4              		.eabi_attribute 20, 1
   5              		.eabi_attribute 21, 1
   6              		.eabi_attribute 23, 3
   7              		.eabi_attribute 24, 1
   8              		.eabi_attribute 25, 1
   9              		.eabi_attribute 26, 1
  10              		.eabi_attribute 30, 2
  11              		.eabi_attribute 34, 1
  12              		.eabi_attribute 18, 4
  13              		.thumb
  14              		.file	"main.c"
  15              		.text
  16              	.Ltext0:
  17              		.cfi_sections	.debug_frame
  18              		.global	__aeabi_i2d
  19              		.global	__aeabi_ddiv
  20              		.global	__aeabi_ui2d
  21              		.section	.text.startup.main,"ax",%progbits
  22              		.align	2
  23              		.p2align 4,,15
  24              		.global	main
  25              		.thumb
  26              		.thumb_func
  27              		.type	main, %function
  28              	main:
  29              	.LFB63:
  30              		.file 1 "main.c"
  31              		.loc 1 69 0
  32              		.cfi_startproc
  33              		@ args = 0, pretend = 0, frame = 0
  34              		@ frame_needed = 0, uses_anonymous_args = 0
  35              	.LVL0:
  36 0000 70B5     		push	{r4, r5, r6, lr}
  37              	.LCFI0:
  38              		.cfi_def_cfa_offset 16
  39              		.cfi_offset 4, -16
  40              		.cfi_offset 5, -12
  41              		.cfi_offset 6, -8
  42              		.cfi_offset 14, -4
  43 0002 84B0     		sub	sp, sp, #16
  44              	.LCFI1:
  45              		.cfi_def_cfa_offset 32
  46              		.loc 1 78 0
  47 0004 FFF7FEFF 		bl	halInit
  48              	.LVL1:
  49              		.loc 1 88 0
  50 0008 3325     		movs	r5, #51
  51              		.loc 1 79 0
  52 000a FFF7FEFF 		bl	chSysInit
  53              	.LVL2:
  54 000e 2F4E     		ldr	r6, .L12
  55              		.loc 1 82 0
  56 0010 FFF7FEFF 		bl	vexConsoleInit
  57              	.LVL3:
ARM GAS  C:\Users\GRACEK~1\AppData\Local\Temp\cc0yJ40f.s 			page 2


  58              		.loc 1 85 0
  59 0014 FFF7FEFF 		bl	vexCortexInit
  60              	.LVL4:
  61              		.loc 1 88 0
  62 0018 39E0     		b	.L2
  63              	.LVL5:
  64              	.L4:
  65              		.loc 1 90 0
  66 001a FFF7FEFF 		bl	chThdSleep
  67              	.LVL6:
  68              		.loc 1 95 0
  69 001e FFF7FEFF 		bl	vexSpiGetMainBattery
  70              	.LVL7:
  71              		.loc 1 94 0
  72 0022 FFF7FEFF 		bl	__aeabi_i2d
  73              	.LVL8:
  74 0026 4FF48043 		mov	r3, #16384
  75 002a 0022     		movs	r2, #0
  76 002c C4F28F03 		movt	r3, 16527
  77 0030 FFF7FEFF 		bl	__aeabi_ddiv
  78              	.LVL9:
  79              		.loc 1 95 0
  80 0034 F368     		ldr	r3, [r6, #12]
  81              		.loc 1 94 0
  82 0036 CDE90001 		strd	r0, [sp]
  83 003a 1846     		mov	r0, r3
  84 003c FFF7FEFF 		bl	__aeabi_ui2d
  85              	.LVL10:
  86 0040 4FF48043 		mov	r3, #16384
  87 0044 C4F28F03 		movt	r3, 16527
  88 0048 0022     		movs	r2, #0
  89 004a FFF7FEFF 		bl	__aeabi_ddiv
  90              	.LVL11:
  91 004e 204A     		ldr	r2, .L12+4
  92 0050 CDE90201 		strd	r0, [sp, #8]
  93 0054 2146     		mov	r1, r4
  94 0056 2046     		mov	r0, r4
  95 0058 FFF7FEFF 		bl	vexLcdPrintf
  96              	.LVL12:
  97              		.loc 1 97 0
  98 005c FFF7FEFF 		bl	vexSpiGetBackupBattery
  99              	.LVL13:
 100              		.loc 1 96 0
 101 0060 FFF7FEFF 		bl	__aeabi_i2d
 102              	.LVL14:
 103 0064 4FF48043 		mov	r3, #16384
 104 0068 C4F28F03 		movt	r3, 16527
 105 006c 0022     		movs	r2, #0
 106 006e FFF7FEFF 		bl	__aeabi_ddiv
 107              	.LVL15:
 108 0072 013D     		subs	r5, r5, #1
 109 0074 CDE90001 		strd	r0, [sp]
 110 0078 164A     		ldr	r2, .L12+8
 111 007a 2046     		mov	r0, r4
 112 007c 0121     		movs	r1, #1
 113 007e FFF7FEFF 		bl	vexLcdPrintf
 114              	.LVL16:
ARM GAS  C:\Users\GRACEK~1\AppData\Local\Temp\cc0yJ40f.s 			page 3


 115 0082 ADB2     		uxth	r5, r5
 116              		.loc 1 99 0
 117 0084 0B20     		movs	r0, #11
 118 0086 2146     		mov	r1, r4
 119 0088 FFF7FEFF 		bl	vexDigitalPinSet
 120              	.LVL17:
 121              		.loc 1 103 0
 122 008c 2DB1     		cbz	r5, .L5
 123              	.L2:
 124              		.loc 1 88 0 discriminator 1
 125 008e FFF7FEFF 		bl	vexSpiGetOnlineStatus
 126              	.LVL18:
 127 0092 0446     		mov	r4, r0
 128              		.loc 1 90 0 discriminator 1
 129 0094 6420     		movs	r0, #100
 130              		.loc 1 88 0 discriminator 1
 131 0096 002C     		cmp	r4, #0
 132 0098 BFD0     		beq	.L4
 133              	.L5:
 134              		.loc 1 70 0
 135 009a 0024     		movs	r4, #0
 136              		.loc 1 108 0
 137 009c FFF7FEFF 		bl	shellInit
 138              	.LVL19:
 139              		.loc 1 112 0
 140 00a0 3CB1     		cbz	r4, .L10
 141              	.L6:
 142              		.loc 1 114 0
 143 00a2 237F     		ldrb	r3, [r4, #28]	@ zero_extendqisi2
 144 00a4 0E2B     		cmp	r3, #14
 145 00a6 0CD0     		beq	.L11
 146              	.LVL20:
 147              	.L7:
 148              		.loc 1 119 0
 149 00a8 3220     		movs	r0, #50
 150 00aa FFF7FEFF 		bl	chThdSleep
 151              	.LVL21:
 152              		.loc 1 112 0
 153 00ae 002C     		cmp	r4, #0
 154 00b0 F7D1     		bne	.L6
 155              	.L10:
 156              		.loc 1 113 0
 157 00b2 0948     		ldr	r0, .L12+12
 158 00b4 4FF42C71 		mov	r1, #688
 159 00b8 4022     		movs	r2, #64
 160 00ba FFF7FEFF 		bl	shellCreate
 161              	.LVL22:
 162 00be 0446     		mov	r4, r0
 163              	.LVL23:
 164 00c0 F2E7     		b	.L7
 165              	.LVL24:
 166              	.L11:
 167              		.loc 1 115 0
 168 00c2 2046     		mov	r0, r4
 169 00c4 FFF7FEFF 		bl	chThdRelease
 170              	.LVL25:
 171              		.loc 1 116 0
ARM GAS  C:\Users\GRACEK~1\AppData\Local\Temp\cc0yJ40f.s 			page 4


 172 00c8 0024     		movs	r4, #0
 173 00ca EDE7     		b	.L7
 174              	.L13:
 175              		.align	2
 176              	.L12:
 177 00cc 00000000 		.word	vtlist
 178 00d0 00000000 		.word	.LC0
 179 00d4 10000000 		.word	.LC1
 180 00d8 00000000 		.word	.LANCHOR0
 181              		.cfi_endproc
 182              	.LFE63:
 183              		.size	main, .-main
 184 00dc AFF30080 		.section	.rodata.commands,"a",%progbits
 185              		.align	2
 186              		.type	commands, %object
 187              		.size	commands, 72
 188              	commands:
 189 0000 24000000 		.word	.LC2
 190 0004 00000000 		.word	vexAdcDebug
 191 0008 28000000 		.word	.LC3
 192 000c 00000000 		.word	vexSpiDebug
 193 0010 2C000000 		.word	.LC4
 194 0014 00000000 		.word	vexMotorDebug
 195 0018 34000000 		.word	.LC5
 196 001c 00000000 		.word	vexLcdDebug
 197 0020 38000000 		.word	.LC6
 198 0024 00000000 		.word	vexEncoderDebug
 199 0028 3C000000 		.word	.LC7
 200 002c 00000000 		.word	vexSonarDebug
 201 0030 40000000 		.word	.LC8
 202 0034 00000000 		.word	vexIMEDebug
 203 0038 44000000 		.word	.LC9
 204 003c 00000000 		.word	vexTestDebug
 205 0040 00000000 		.word	0
 206 0044 00000000 		.word	0
 207              		.section	.rodata.str1.4,"aMS",%progbits,1
 208              		.align	2
 209              	.LC0:
 210 0000 25342E32 		.ascii	"%4.2fV   %8.1f\000"
 210      66562020 
 210      2025382E 
 210      316600
 211 000f 00       		.space	1
 212              	.LC1:
 213 0010 25342E32 		.ascii	"%4.2fV Booting...\000"
 213      66562042 
 213      6F6F7469 
 213      6E672E2E 
 213      2E00
 214 0022 0000     		.space	2
 215              	.LC2:
 216 0024 61646300 		.ascii	"adc\000"
 217              	.LC3:
 218 0028 73706900 		.ascii	"spi\000"
 219              	.LC4:
 220 002c 6D6F746F 		.ascii	"motor\000"
 220      7200
ARM GAS  C:\Users\GRACEK~1\AppData\Local\Temp\cc0yJ40f.s 			page 5


 221 0032 0000     		.space	2
 222              	.LC5:
 223 0034 6C636400 		.ascii	"lcd\000"
 224              	.LC6:
 225 0038 656E6300 		.ascii	"enc\000"
 226              	.LC7:
 227 003c 736F6E00 		.ascii	"son\000"
 228              	.LC8:
 229 0040 696D6500 		.ascii	"ime\000"
 230              	.LC9:
 231 0044 74657374 		.ascii	"test\000"
 231      00
 232 0049 000000   		.section	.rodata.shell_cfg1,"a",%progbits
 233              		.align	2
 234              		.set	.LANCHOR0,. + 0
 235              		.type	shell_cfg1, %object
 236              		.size	shell_cfg1, 8
 237              	shell_cfg1:
 238 0000 00000000 		.word	SD1
 239 0004 00000000 		.word	commands
 240              		.text
 241              	.Letext0:
 242              		.file 2 "c:\\yagarto-20121222\\bin\\../lib/gcc/arm-none-eabi/4.7.2/include/stddef.h"
 243              		.file 3 "c:/yagarto-20121222/lib/gcc/../../arm-none-eabi/sys-include/stdint.h"
 244              		.file 4 "../ChibiOS_2.6.0/os/ports/GCC/ARMCMx/chtypes.h"
 245              		.file 5 "../ChibiOS_2.6.0/os/kernel/include/chlists.h"
 246              		.file 6 "../ChibiOS_2.6.0/os/kernel/include/chthreads.h"
 247              		.file 7 "../ChibiOS_2.6.0/os/ports/GCC/ARMCMx/chcore_v7m.h"
 248              		.file 8 "../ChibiOS_2.6.0/os/kernel/include/chvt.h"
 249              		.file 9 "../ChibiOS_2.6.0/os/kernel/include/chmtx.h"
 250              		.file 10 "../ChibiOS_2.6.0/os/kernel/include/chevents.h"
 251              		.file 11 "../ChibiOS_2.6.0/os/kernel/include/chqueues.h"
 252              		.file 12 "../ChibiOS_2.6.0/os/kernel/include/chstreams.h"
 253              		.file 13 "../ChibiOS_2.6.0/os/hal/platforms/STM32F1xx/stm32f10x.h"
 254              		.file 14 "../ChibiOS_2.6.0/os/hal/include/serial.h"
 255              		.file 15 "../convex/cortex/fw/vexcompat.h"
 256              		.file 16 "../convex/cortex/fw/vexdigital.h"
 257              		.file 17 "../convex/cortex/fw/vexime.h"
 258              		.file 18 "../convex/cortex/fw/vexshell.h"
 259              		.file 19 "../ChibiOS_2.6.0/os/ports/common/ARMCMx/CMSIS/include/core_cm3.h"
 260              		.file 20 "../ChibiOS_2.6.0/os/hal/include/hal.h"
 261              		.file 21 "../ChibiOS_2.6.0/os/kernel/include/chsys.h"
 262              		.file 22 "../convex/cortex/fw/vex.h"
 263              		.file 23 "../convex/cortex/fw/vexlcd.h"
 264              		.file 24 "../convex/cortex/fw/vexspi.h"
 265              		.file 25 "../ChibiOS_2.6.0/os/hal/platforms/STM32/USARTv1/serial_lld.h"
 266              		.file 26 "../ChibiOS_2.6.0/os/kernel/include/chdynamic.h"