ARM GAS  C:\Users\GRACEK~1\AppData\Local\Temp\ccn5HBh9.s 			page 1


   1              		.syntax unified
   2              		.cpu cortex-m3
   3              		.fpu softvfp
   4              		.eabi_attribute 20, 1
   5              		.eabi_attribute 21, 1
   6              		.eabi_attribute 23, 3
   7              		.eabi_attribute 24, 1
   8              		.eabi_attribute 25, 1
   9              		.eabi_attribute 26, 1
  10              		.eabi_attribute 30, 2
  11              		.eabi_attribute 34, 1
  12              		.eabi_attribute 18, 4
  13              		.thumb
  14              		.file	"vexspi.c"
  15              		.text
  16              	.Ltext0:
  17              		.cfi_sections	.debug_frame
  18              		.section	.text._vspi_gpt_cb,"ax",%progbits
  19              		.align	2
  20              		.p2align 4,,15
  21              		.thumb
  22              		.thumb_func
  23              		.type	_vspi_gpt_cb, %function
  24              	_vspi_gpt_cb:
  25              	.LFB63:
  26              		.file 1 "../convex/cortex/fw/vexspi.c"
  27              		.loc 1 102 0
  28              		.cfi_startproc
  29              		@ args = 0, pretend = 0, frame = 0
  30              		@ frame_needed = 0, uses_anonymous_args = 0
  31              	.LVL0:
  32 0000 10B5     		push	{r4, lr}
  33              	.LCFI0:
  34              		.cfi_def_cfa_offset 8
  35              		.cfi_offset 4, -8
  36              		.cfi_offset 14, -4
  37              	.LBB2:
  38              		.loc 1 105 0
  39 0002 2023     		movs	r3, #32
  40              	.LVL1:
  41              	@ 105 "../convex/cortex/fw/vexspi.c" 1
  42 0004 83F31188 		msr     BASEPRI, r3
  43              	@ 0 "" 2
  44              	.LVL2:
  45              		.thumb
  46              	.LBE2:
  47              		.loc 1 108 0
  48 0008 054C     		ldr	r4, .L7
  49 000a 2068     		ldr	r0, [r4, #0]
  50              	.LVL3:
  51 000c 18B1     		cbz	r0, .L2
  52              		.loc 1 109 0
  53 000e FFF7FEFF 		bl	chSchReadyI
  54              	.LVL4:
  55              		.loc 1 110 0
  56 0012 0023     		movs	r3, #0
  57 0014 2360     		str	r3, [r4, #0]
ARM GAS  C:\Users\GRACEK~1\AppData\Local\Temp\ccn5HBh9.s 			page 2


  58              	.LVL5:
  59              	.L2:
  60              	.LBB3:
  61              		.loc 1 113 0
  62 0016 0023     		movs	r3, #0
  63              	.LVL6:
  64              	@ 113 "../convex/cortex/fw/vexspi.c" 1
  65 0018 83F31188 		msr     BASEPRI, r3
  66              	@ 0 "" 2
  67              	.LVL7:
  68              		.thumb
  69 001c 10BD     		pop	{r4, pc}
  70              	.L8:
  71 001e 00BF     		.align	2
  72              	.L7:
  73 0020 00000000 		.word	.LANCHOR0
  74              	.LBE3:
  75              		.cfi_endproc
  76              	.LFE63:
  77              		.size	_vspi_gpt_cb, .-_vspi_gpt_cb
  78 0024 AFF30080 		.section	.text.vexSpiInit,"ax",%progbits
  78      AFF30080 
  78      AFF30080 
  79              		.align	2
  80              		.p2align 4,,15
  81              		.global	vexSpiInit
  82              		.thumb
  83              		.thumb_func
  84              		.type	vexSpiInit, %function
  85              	vexSpiInit:
  86              	.LFB64:
  87              		.loc 1 135 0
  88              		.cfi_startproc
  89              		@ args = 0, pretend = 0, frame = 0
  90              		@ frame_needed = 0, uses_anonymous_args = 0
  91              	.LVL8:
  92 0000 0B48     		ldr	r0, .L12
  93 0002 0C49     		ldr	r1, .L12+4
  94 0004 08B5     		push	{r3, lr}
  95              	.LCFI1:
  96              		.cfi_def_cfa_offset 8
  97              		.cfi_offset 3, -8
  98              		.cfi_offset 14, -4
  99              		.loc 1 135 0
 100 0006 0023     		movs	r3, #0
 101              	.LVL9:
 102              	.L10:
 103              		.loc 1 140 0 discriminator 2
 104 0008 CA5C     		ldrb	r2, [r1, r3]	@ zero_extendqisi2
 105 000a C254     		strb	r2, [r0, r3]
 106 000c 0133     		adds	r3, r3, #1
 107              		.loc 1 139 0 discriminator 2
 108 000e 202B     		cmp	r3, #32
 109 0010 FAD1     		bne	.L10
 110              		.loc 1 142 0
 111 0012 074B     		ldr	r3, .L12
 112 0014 0022     		movs	r2, #0
ARM GAS  C:\Users\GRACEK~1\AppData\Local\Temp\ccn5HBh9.s 			page 3


 113              		.loc 1 145 0
 114 0016 0848     		ldr	r0, .L12+8
 115 0018 0849     		ldr	r1, .L12+12
 116              		.loc 1 142 0
 117 001a A3F86020 		strh	r2, [r3, #96]	@ movhi
 118              		.loc 1 145 0
 119 001e FFF7FEFF 		bl	spiStart
 120              	.LVL10:
 121              		.loc 1 148 0
 122 0022 0748     		ldr	r0, .L12+16
 123 0024 0749     		ldr	r1, .L12+20
 124              		.loc 1 149 0
 125 0026 BDE80840 		pop	{r3, lr}
 126              		.loc 1 148 0
 127 002a FFF7FEBF 		b	gptStart
 128              	.LVL11:
 129              	.L13:
 130 002e 00BF     		.align	2
 131              	.L12:
 132 0030 00000000 		.word	.LANCHOR1
 133 0034 00000000 		.word	.LANCHOR2
 134 0038 00000000 		.word	SPID1
 135 003c 00000000 		.word	.LANCHOR3
 136 0040 00000000 		.word	GPTD2
 137 0044 00000000 		.word	.LANCHOR4
 138              		.cfi_endproc
 139              	.LFE64:
 140              		.size	vexSpiInit, .-vexSpiInit
 141 0048 AFF30080 		.section	.text.vexSpiTeamnameSet,"ax",%progbits
 141      AFF30080 
 142              		.align	2
 143              		.p2align 4,,15
 144              		.global	vexSpiTeamnameSet
 145              		.thumb
 146              		.thumb_func
 147              		.type	vexSpiTeamnameSet, %function
 148              	vexSpiTeamnameSet:
 149              	.LFB65:
 150              		.loc 1 158 0
 151              		.cfi_startproc
 152              		@ args = 0, pretend = 0, frame = 0
 153              		@ frame_needed = 0, uses_anonymous_args = 0
 154              		@ link register save eliminated.
 155              	.LVL12:
 156 0000 0449     		ldr	r1, .L19
 157              		.loc 1 158 0
 158 0002 0023     		movs	r3, #0
 159              	.LVL13:
 160              	.L17:
 161              		.loc 1 163 0
 162 0004 0278     		ldrb	r2, [r0, #0]	@ zero_extendqisi2
 163              		.loc 1 164 0
 164 0006 CA54     		strb	r2, [r1, r3]
 165              		.loc 1 163 0
 166 0008 02B1     		cbz	r2, .L16
 167              		.loc 1 164 0
 168 000a 0130     		adds	r0, r0, #1
ARM GAS  C:\Users\GRACEK~1\AppData\Local\Temp\ccn5HBh9.s 			page 4


 169              	.LVL14:
 170              	.L16:
 171 000c 0133     		adds	r3, r3, #1
 172              		.loc 1 161 0
 173 000e 082B     		cmp	r3, #8
 174 0010 F8D1     		bne	.L17
 175              		.loc 1 168 0
 176 0012 7047     		bx	lr
 177              	.L20:
 178              		.align	2
 179              	.L19:
 180 0014 00000000 		.word	.LANCHOR5
 181              		.cfi_endproc
 182              	.LFE65:
 183              		.size	vexSpiTeamnameSet, .-vexSpiTeamnameSet
 184 0018 AFF30080 		.section	.text.vexSpiGetOnlineStatus,"ax",%progbits
 184      AFF30080 
 185              		.align	2
 186              		.p2align 4,,15
 187              		.global	vexSpiGetOnlineStatus
 188              		.thumb
 189              		.thumb_func
 190              		.type	vexSpiGetOnlineStatus, %function
 191              	vexSpiGetOnlineStatus:
 192              	.LFB66:
 193              		.loc 1 178 0
 194              		.cfi_startproc
 195              		@ args = 0, pretend = 0, frame = 0
 196              		@ frame_needed = 0, uses_anonymous_args = 0
 197              		@ link register save eliminated.
 198              		.loc 1 179 0
 199 0000 40F20003 		movw	r3, #:lower16:.LANCHOR1
 200 0004 C0F20003 		movt	r3, #:upper16:.LANCHOR1
 201              		.loc 1 180 0
 202 0008 B3F96000 		ldrsh	r0, [r3, #96]
 203 000c 7047     		bx	lr
 204              		.cfi_endproc
 205              	.LFE66:
 206              		.size	vexSpiGetOnlineStatus, .-vexSpiGetOnlineStatus
 207 000e 00BF     		.section	.text.vexSpiGetJoystickDataPtr,"ax",%progbits
 208              		.align	2
 209              		.p2align 4,,15
 210              		.global	vexSpiGetJoystickDataPtr
 211              		.thumb
 212              		.thumb_func
 213              		.type	vexSpiGetJoystickDataPtr, %function
 214              	vexSpiGetJoystickDataPtr:
 215              	.LFB67:
 216              		.loc 1 190 0
 217              		.cfi_startproc
 218              		@ args = 0, pretend = 0, frame = 0
 219              		@ frame_needed = 0, uses_anonymous_args = 0
 220              		@ link register save eliminated.
 221              	.LVL15:
 222              		.loc 1 192 0
 223 0000 034B     		ldr	r3, .L25
 224 0002 03F10C02 		add	r2, r3, #12
ARM GAS  C:\Users\GRACEK~1\AppData\Local\Temp\ccn5HBh9.s 			page 5


 225              		.loc 1 195 0
 226 0006 0128     		cmp	r0, #1
 227 0008 D4BF     		ite	le
 228 000a 1846     		movle	r0, r3
 229 000c 1046     		movgt	r0, r2
 230              	.LVL16:
 231 000e 7047     		bx	lr
 232              	.L26:
 233              		.align	2
 234              	.L25:
 235 0010 26000000 		.word	.LANCHOR1+38
 236              		.cfi_endproc
 237              	.LFE67:
 238              		.size	vexSpiGetJoystickDataPtr, .-vexSpiGetJoystickDataPtr
 239 0014 AFF30080 		.section	.text.vexSpiGetControl,"ax",%progbits
 239      AFF30080 
 239      AFF30080 
 240              		.align	2
 241              		.p2align 4,,15
 242              		.global	vexSpiGetControl
 243              		.thumb
 244              		.thumb_func
 245              		.type	vexSpiGetControl, %function
 246              	vexSpiGetControl:
 247              	.LFB68:
 248              		.loc 1 204 0
 249              		.cfi_startproc
 250              		@ args = 0, pretend = 0, frame = 0
 251              		@ frame_needed = 0, uses_anonymous_args = 0
 252              		@ link register save eliminated.
 253              		.loc 1 205 0
 254 0000 40F20003 		movw	r3, #:lower16:.LANCHOR1
 255 0004 C0F20003 		movt	r3, #:upper16:.LANCHOR1
 256              		.loc 1 206 0
 257 0008 93F82300 		ldrb	r0, [r3, #35]	@ zero_extendqisi2
 258 000c 7047     		bx	lr
 259              		.cfi_endproc
 260              	.LFE68:
 261              		.size	vexSpiGetControl, .-vexSpiGetControl
 262 000e 00BF     		.section	.text.vexSpiGetMainBattery,"ax",%progbits
 263              		.align	2
 264              		.p2align 4,,15
 265              		.global	vexSpiGetMainBattery
 266              		.thumb
 267              		.thumb_func
 268              		.type	vexSpiGetMainBattery, %function
 269              	vexSpiGetMainBattery:
 270              	.LFB69:
 271              		.loc 1 221 0
 272              		.cfi_startproc
 273              		@ args = 0, pretend = 0, frame = 0
 274              		@ frame_needed = 0, uses_anonymous_args = 0
 275              		@ link register save eliminated.
 276              		.loc 1 223 0
 277 0000 40F20003 		movw	r3, #:lower16:.LANCHOR1
 278 0004 C0F20003 		movt	r3, #:upper16:.LANCHOR1
 279 0008 93F82430 		ldrb	r3, [r3, #36]	@ zero_extendqisi2
ARM GAS  C:\Users\GRACEK~1\AppData\Local\Temp\ccn5HBh9.s 			page 6


 280 000c C3EB0312 		rsb	r2, r3, r3, lsl #4
 281 0010 C3EB8200 		rsb	r0, r3, r2, lsl #2
 282              		.loc 1 224 0
 283 0014 80B2     		uxth	r0, r0
 284 0016 7047     		bx	lr
 285              		.cfi_endproc
 286              	.LFE69:
 287              		.size	vexSpiGetMainBattery, .-vexSpiGetMainBattery
 288 0018 AFF30080 		.section	.text.vexSpiGetBackupBattery,"ax",%progbits
 288      AFF30080 
 289              		.align	2
 290              		.p2align 4,,15
 291              		.global	vexSpiGetBackupBattery
 292              		.thumb
 293              		.thumb_func
 294              		.type	vexSpiGetBackupBattery, %function
 295              	vexSpiGetBackupBattery:
 296              	.LFB70:
 297              		.loc 1 234 0
 298              		.cfi_startproc
 299              		@ args = 0, pretend = 0, frame = 0
 300              		@ frame_needed = 0, uses_anonymous_args = 0
 301              		@ link register save eliminated.
 302              		.loc 1 236 0
 303 0000 40F20003 		movw	r3, #:lower16:.LANCHOR1
 304 0004 C0F20003 		movt	r3, #:upper16:.LANCHOR1
 305 0008 93F82530 		ldrb	r3, [r3, #37]	@ zero_extendqisi2
 306 000c C3EB0312 		rsb	r2, r3, r3, lsl #4
 307 0010 C3EB8200 		rsb	r0, r3, r2, lsl #2
 308              		.loc 1 237 0
 309 0014 80B2     		uxth	r0, r0
 310 0016 7047     		bx	lr
 311              		.cfi_endproc
 312              	.LFE70:
 313              		.size	vexSpiGetBackupBattery, .-vexSpiGetBackupBattery
 314 0018 AFF30080 		.section	.text.vexSpiSetMotor,"ax",%progbits
 314      AFF30080 
 315              		.align	2
 316              		.p2align 4,,15
 317              		.global	vexSpiSetMotor
 318              		.thumb
 319              		.thumb_func
 320              		.type	vexSpiSetMotor, %function
 321              	vexSpiSetMotor:
 322              	.LFB71:
 323              		.loc 1 253 0
 324              		.cfi_startproc
 325              		@ args = 0, pretend = 0, frame = 0
 326              		@ frame_needed = 0, uses_anonymous_args = 0
 327              		@ link register save eliminated.
 328              	.LVL17:
 329              		.loc 1 258 0
 330 0000 83B2     		uxth	r3, r0
 331 0002 072B     		cmp	r3, #7
 332 0004 07D8     		bhi	.L30
 333              		.loc 1 263 0
 334 0006 7F29     		cmp	r1, #127
ARM GAS  C:\Users\GRACEK~1\AppData\Local\Temp\ccn5HBh9.s 			page 7


 335 0008 06DD     		ble	.L37
 336              		.loc 1 264 0
 337 000a FF21     		movs	r1, #255
 338              	.LVL18:
 339              	.L32:
 340              		.loc 1 272 0
 341 000c 02B1     		cbz	r2, .L36
 342              		.loc 1 275 0
 343 000e C943     		mvns	r1, r1
 344              	.LVL19:
 345              	.L36:
 346 0010 054B     		ldr	r3, .L39
 347 0012 1818     		adds	r0, r3, r0
 348              	.LVL20:
 349 0014 8171     		strb	r1, [r0, #6]
 350              	.L30:
 351 0016 7047     		bx	lr
 352              	.LVL21:
 353              	.L37:
 354              		.loc 1 266 0
 355 0018 11F17F0F 		cmn	r1, #127
 356 001c 01DA     		bge	.L38
 357              		.loc 1 267 0
 358 001e 0021     		movs	r1, #0
 359              	.LVL22:
 360 0020 F4E7     		b	.L32
 361              	.LVL23:
 362              	.L38:
 363              		.loc 1 269 0
 364 0022 7F31     		adds	r1, r1, #127
 365              	.LVL24:
 366 0024 C9B2     		uxtb	r1, r1
 367              	.LVL25:
 368 0026 F1E7     		b	.L32
 369              	.L40:
 370              		.align	2
 371              	.L39:
 372 0028 00000000 		.word	.LANCHOR1
 373              		.cfi_endproc
 374              	.LFE71:
 375              		.size	vexSpiSetMotor, .-vexSpiSetMotor
 376 002c AFF30080 		.section	.text.vexSpiTickDelay,"ax",%progbits
 377              		.align	2
 378              		.p2align 4,,15
 379              		.global	vexSpiTickDelay
 380              		.thumb
 381              		.thumb_func
 382              		.type	vexSpiTickDelay, %function
 383              	vexSpiTickDelay:
 384              	.LFB72:
 385              		.loc 1 287 0
 386              		.cfi_startproc
 387              		@ args = 0, pretend = 0, frame = 0
 388              		@ frame_needed = 0, uses_anonymous_args = 0
 389              	.LVL26:
 390 0000 08B5     		push	{r3, lr}
 391              	.LCFI2:
ARM GAS  C:\Users\GRACEK~1\AppData\Local\Temp\ccn5HBh9.s 			page 8


 392              		.cfi_def_cfa_offset 8
 393              		.cfi_offset 3, -8
 394              		.cfi_offset 14, -4
 395              		.loc 1 287 0
 396 0002 0146     		mov	r1, r0
 397              	.LBB4:
 398              		.loc 1 291 0
 399 0004 2023     		movs	r3, #32
 400              	.LVL27:
 401              	@ 291 "../convex/cortex/fw/vexspi.c" 1
 402 0006 83F31188 		msr     BASEPRI, r3
 403              	@ 0 "" 2
 404              	.LVL28:
 405              		.thumb
 406              	.LBE4:
 407              		.loc 1 292 0
 408 000a 40F20003 		movw	r3, #:lower16:rlist
 409              	.LVL29:
 410 000e C0F20003 		movt	r3, #:upper16:rlist
 411 0012 9A69     		ldr	r2, [r3, #24]
 412              		.loc 1 293 0
 413 0014 40F20000 		movw	r0, #:lower16:GPTD2
 414              	.LVL30:
 415              		.loc 1 292 0
 416 0018 40F20003 		movw	r3, #:lower16:.LANCHOR0
 417 001c C0F20003 		movt	r3, #:upper16:.LANCHOR0
 418              		.loc 1 293 0
 419 0020 89B2     		uxth	r1, r1
 420 0022 C0F20000 		movt	r0, #:upper16:GPTD2
 421              		.loc 1 292 0
 422 0026 1A60     		str	r2, [r3, #0]
 423              		.loc 1 293 0
 424 0028 FFF7FEFF 		bl	gptStartOneShotI
 425              	.LVL31:
 426              		.loc 1 294 0
 427 002c 0220     		movs	r0, #2
 428 002e FFF7FEFF 		bl	chSchGoSleepS
 429              	.LVL32:
 430              	.LBB5:
 431              		.loc 1 295 0
 432 0032 0023     		movs	r3, #0
 433              	.LVL33:
 434              	@ 295 "../convex/cortex/fw/vexspi.c" 1
 435 0034 83F31188 		msr     BASEPRI, r3
 436              	@ 0 "" 2
 437              	.LVL34:
 438              		.thumb
 439 0038 08BD     		pop	{r3, pc}
 440              	.LBE5:
 441              		.cfi_endproc
 442              	.LFE72:
 443              		.size	vexSpiTickDelay, .-vexSpiTickDelay
 444 003a 00BFAFF3 		.section	.text.vexSpiSend,"ax",%progbits
 444      0080
 445              		.align	2
 446              		.p2align 4,,15
 447              		.global	vexSpiSend
ARM GAS  C:\Users\GRACEK~1\AppData\Local\Temp\ccn5HBh9.s 			page 9


 448              		.thumb
 449              		.thumb_func
 450              		.type	vexSpiSend, %function
 451              	vexSpiSend:
 452              	.LFB73:
 453              		.loc 1 311 0
 454              		.cfi_startproc
 455              		@ args = 0, pretend = 0, frame = 0
 456              		@ frame_needed = 0, uses_anonymous_args = 0
 457              	.LVL35:
 458 0000 2DE9F041 		push	{r4, r5, r6, r7, r8, lr}
 459              	.LCFI3:
 460              		.cfi_def_cfa_offset 24
 461              		.cfi_offset 4, -24
 462              		.cfi_offset 5, -20
 463              		.cfi_offset 6, -16
 464              		.cfi_offset 7, -12
 465              		.cfi_offset 8, -8
 466              		.cfi_offset 14, -4
 467              		.loc 1 318 0
 468 0004 434E     		ldr	r6, .L78
 469 0006 B378     		ldrb	r3, [r6, #2]	@ zero_extendqisi2
 470 0008 032B     		cmp	r3, #3
 471 000a 3DD0     		beq	.L43
 472              	.L48:
 473              		.loc 1 335 0
 474 000c 4FF40068 		mov	r8, #2048
 475 0010 C4F20108 		movt	r8, 16385
 476 0014 4FF40067 		mov	r7, #2048
 477 0018 C8F81070 		str	r7, [r8, #16]
 478              	.LVL36:
 479 001c 3E4D     		ldr	r5, .L78+4
 480              		.loc 1 337 0
 481 001e 0024     		movs	r4, #0
 482 0020 0AE0     		b	.L44
 483              	.LVL37:
 484              	.L72:
 485              		.loc 1 344 0 discriminator 1
 486 0022 0F2C     		cmp	r4, #15
 487 0024 1BD0     		beq	.L49
 488              		.loc 1 337 0
 489 0026 0134     		adds	r4, r4, #1
 490              		.loc 1 347 0
 491 0028 4920     		movs	r0, #73
 492              		.loc 1 337 0
 493 002a A4B2     		uxth	r4, r4
 494              		.loc 1 347 0
 495 002c FFF7FEFF 		bl	vexSpiTickDelay
 496              	.LVL38:
 497              		.loc 1 337 0
 498 0030 102C     		cmp	r4, #16
 499              		.loc 1 350 0
 500 0032 C8F81470 		str	r7, [r8, #20]
 501              		.loc 1 337 0
 502 0036 18D0     		beq	.L71
 503              	.LVL39:
 504              	.L44:
ARM GAS  C:\Users\GRACEK~1\AppData\Local\Temp\ccn5HBh9.s 			page 10


 505              		.loc 1 339 0
 506 0038 3848     		ldr	r0, .L78+8
 507 003a FFF7FEFF 		bl	spi_lld_select
 508              	.LVL40:
 509              		.loc 1 340 0
 510 003e 35F8021F 		ldrh	r1, [r5, #2]!
 511 0042 3648     		ldr	r0, .L78+8
 512 0044 FFF7FEFF 		bl	spi_lld_polled_exchange
 513              	.LVL41:
 514 0048 A5F84000 		strh	r0, [r5, #64]	@ movhi
 515              		.loc 1 342 0
 516 004c 3348     		ldr	r0, .L78+8
 517 004e FFF7FEFF 		bl	spi_lld_unselect
 518              	.LVL42:
 519              		.loc 1 344 0
 520 0052 04F00303 		and	r3, r4, #3
 521 0056 032B     		cmp	r3, #3
 522              		.loc 1 353 0
 523 0058 4FF00800 		mov	r0, #8
 524              		.loc 1 344 0
 525 005c E1D0     		beq	.L72
 526              	.L49:
 527              		.loc 1 337 0
 528 005e 0134     		adds	r4, r4, #1
 529 0060 A4B2     		uxth	r4, r4
 530              		.loc 1 353 0
 531 0062 FFF7FEFF 		bl	vexSpiTickDelay
 532              	.LVL43:
 533              		.loc 1 337 0
 534 0066 102C     		cmp	r4, #16
 535 0068 E6D1     		bne	.L44
 536              	.LVL44:
 537              	.L71:
 538              		.loc 1 357 0
 539 006a F37F     		ldrb	r3, [r6, #31]	@ zero_extendqisi2
 540              		.loc 1 360 0
 541 006c B6F84020 		ldrh	r2, [r6, #64]
 542              		.loc 1 357 0
 543 0070 0133     		adds	r3, r3, #1
 544 0072 F377     		strb	r3, [r6, #31]
 545              		.loc 1 360 0
 546 0074 4CF61713 		movw	r3, #51479
 547 0078 9A42     		cmp	r2, r3
 548              		.loc 1 357 0
 549 007a 2649     		ldr	r1, .L78
 550              		.loc 1 360 0
 551 007c 16D0     		beq	.L73
 552              		.loc 1 392 0
 553 007e 4B6E     		ldr	r3, [r1, #100]
 554 0080 0133     		adds	r3, r3, #1
 555 0082 4B66     		str	r3, [r1, #100]
 556              	.L42:
 557 0084 BDE8F081 		pop	{r4, r5, r6, r7, r8, pc}
 558              	.L43:
 559              	.LVL45:
 560              	.LBB6:
 561              		.loc 1 322 0
ARM GAS  C:\Users\GRACEK~1\AppData\Local\Temp\ccn5HBh9.s 			page 11


 562 0088 5523     		movs	r3, #85
 563 008a 7371     		strb	r3, [r6, #5]
 564              	.LVL46:
 565              	.LBE6:
 566              		.loc 1 320 0
 567 008c 2449     		ldr	r1, .L78+12
 568 008e 3346     		mov	r3, r6
 569              	.LBB7:
 570              		.loc 1 310 0
 571 0090 06F10800 		add	r0, r6, #8
 572              		.loc 1 330 0
 573 0094 2024     		movs	r4, #32
 574 0096 04E0     		b	.L47
 575              	.LVL47:
 576              	.L74:
 577              		.loc 1 328 0
 578 0098 9A71     		strb	r2, [r3, #6]
 579 009a 0131     		adds	r1, r1, #1
 580              	.LVL48:
 581              	.L46:
 582 009c 0133     		adds	r3, r3, #1
 583              		.loc 1 325 0
 584 009e 8342     		cmp	r3, r0
 585 00a0 B4D0     		beq	.L48
 586              	.LVL49:
 587              	.L47:
 588              		.loc 1 327 0
 589 00a2 0A78     		ldrb	r2, [r1, #0]	@ zero_extendqisi2
 590 00a4 002A     		cmp	r2, #0
 591 00a6 F7D1     		bne	.L74
 592              		.loc 1 330 0
 593 00a8 9C71     		strb	r4, [r3, #6]
 594 00aa F7E7     		b	.L46
 595              	.L73:
 596 00ac 01F13F03 		add	r3, r1, #63
 597              	.LBE7:
 598              		.loc 1 310 0
 599 00b0 5F31     		adds	r1, r1, #95
 600              	.L52:
 601              		.loc 1 364 0 discriminator 2
 602 00b2 13F8012F 		ldrb	r2, [r3, #1]!	@ zero_extendqisi2
 603              		.loc 1 363 0 discriminator 2
 604 00b6 8B42     		cmp	r3, r1
 605              		.loc 1 364 0 discriminator 2
 606 00b8 03F8202C 		strb	r2, [r3, #-32]
 607              		.loc 1 363 0 discriminator 2
 608 00bc F9D1     		bne	.L52
 609              		.loc 1 367 0
 610 00be 96F82210 		ldrb	r1, [r6, #34]	@ zero_extendqisi2
 611 00c2 144B     		ldr	r3, .L78
 612 00c4 01F00F02 		and	r2, r1, #15
 613 00c8 082A     		cmp	r2, #8
 614 00ca 11D0     		beq	.L75
 615              		.loc 1 371 0
 616 00cc 9878     		ldrb	r0, [r3, #2]	@ zero_extendqisi2
 617 00ce 00F00E00 		and	r0, r0, #14
 618 00d2 0228     		cmp	r0, #2
ARM GAS  C:\Users\GRACEK~1\AppData\Local\Temp\ccn5HBh9.s 			page 12


 619 00d4 D6D1     		bne	.L42
 620              		.loc 1 374 0
 621 00d6 022A     		cmp	r2, #2
 622 00d8 18D0     		beq	.L76
 623              		.loc 1 377 0
 624 00da 032A     		cmp	r2, #3
 625 00dc 11D0     		beq	.L77
 626              	.L56:
 627              		.loc 1 384 0
 628 00de 11F00C0F 		tst	r1, #12
 629 00e2 CFD0     		beq	.L42
 630              		.loc 1 386 0
 631 00e4 0823     		movs	r3, #8
 632 00e6 B370     		strb	r3, [r6, #2]
 633              		.loc 1 387 0
 634 00e8 0023     		movs	r3, #0
 635 00ea 7371     		strb	r3, [r6, #5]
 636 00ec BDE8F081 		pop	{r4, r5, r6, r7, r8, pc}
 637              	.L75:
 638              		.loc 1 371 0
 639 00f0 9A78     		ldrb	r2, [r3, #2]	@ zero_extendqisi2
 640              		.loc 1 368 0
 641 00f2 0120     		movs	r0, #1
 642              		.loc 1 371 0
 643 00f4 02F00E02 		and	r2, r2, #14
 644 00f8 022A     		cmp	r2, #2
 645              		.loc 1 368 0
 646 00fa A3F86000 		strh	r0, [r3, #96]	@ movhi
 647              		.loc 1 371 0
 648 00fe C1D1     		bne	.L42
 649 0100 EDE7     		b	.L56
 650              	.L77:
 651              		.loc 1 379 0
 652 0102 0822     		movs	r2, #8
 653 0104 9A70     		strb	r2, [r3, #2]
 654              		.loc 1 380 0
 655 0106 0022     		movs	r2, #0
 656 0108 5A71     		strb	r2, [r3, #5]
 657 010a E8E7     		b	.L56
 658              	.L76:
 659              		.loc 1 375 0
 660 010c 0322     		movs	r2, #3
 661 010e 9A70     		strb	r2, [r3, #2]
 662 0110 E5E7     		b	.L56
 663              	.L79:
 664 0112 00BF     		.align	2
 665              	.L78:
 666 0114 00000000 		.word	.LANCHOR1
 667 0118 FEFFFFFF 		.word	.LANCHOR1-2
 668 011c 00000000 		.word	SPID1
 669 0120 00000000 		.word	.LANCHOR5
 670              		.cfi_endproc
 671              	.LFE73:
 672              		.size	vexSpiSend, .-vexSpiSend
 673 0124 AFF30080 		.section	.text.vexSpiDebug,"ax",%progbits
 673      AFF30080 
 673      AFF30080 
ARM GAS  C:\Users\GRACEK~1\AppData\Local\Temp\ccn5HBh9.s 			page 13


 674              		.align	2
 675              		.p2align 4,,15
 676              		.global	vexSpiDebug
 677              		.thumb
 678              		.thumb_func
 679              		.type	vexSpiDebug, %function
 680              	vexSpiDebug:
 681              	.LFB74:
 682              		.loc 1 404 0
 683              		.cfi_startproc
 684              		@ args = 0, pretend = 0, frame = 0
 685              		@ frame_needed = 0, uses_anonymous_args = 0
 686              	.LVL50:
 687              		.loc 1 412 0
 688 0000 0129     		cmp	r1, #1
 689              		.loc 1 404 0
 690 0002 2DE9F041 		push	{r4, r5, r6, r7, r8, lr}
 691              	.LCFI4:
 692              		.cfi_def_cfa_offset 24
 693              		.cfi_offset 4, -24
 694              		.cfi_offset 5, -20
 695              		.cfi_offset 6, -16
 696              		.cfi_offset 7, -12
 697              		.cfi_offset 8, -8
 698              		.cfi_offset 14, -4
 699              		.loc 1 404 0
 700 0006 0446     		mov	r4, r0
 701 0008 1546     		mov	r5, r2
 702              		.loc 1 412 0
 703 000a 40F39780 		ble	.L94
 704              		.loc 1 414 0
 705 000e 1068     		ldr	r0, [r2, #0]
 706              	.LVL51:
 707 0010 FFF7FEFF 		bl	atoi
 708              	.LVL52:
 709 0014 86B2     		uxth	r6, r0
 710              	.LVL53:
 711              		.loc 1 415 0
 712 0016 6868     		ldr	r0, [r5, #4]
 713              	.LVL54:
 714 0018 FFF7FEFF 		bl	atoi
 715              	.LVL55:
 716              		.loc 1 417 0
 717 001c 484F     		ldr	r7, .L95
 718              		.loc 1 416 0
 719 001e 33B2     		sxth	r3, r6
 720 0020 012B     		cmp	r3, #1
 721              		.loc 1 417 0
 722 0022 C8BF     		it	gt
 723 0024 F854     		strbgt	r0, [r7, r3]
 724              	.LVL56:
 725              	.L82:
 726 0026 474D     		ldr	r5, .L95+4
 727              	.LVL57:
 728              		.loc 1 403 0 discriminator 1
 729 0028 05F11806 		add	r6, r5, #24
 730              	.LVL58:
ARM GAS  C:\Users\GRACEK~1\AppData\Local\Temp\ccn5HBh9.s 			page 14


 731              	.L84:
 732              		.loc 1 421 0 discriminator 2
 733 002c 15F8012F 		ldrb	r2, [r5, #1]!	@ zero_extendqisi2
 734 0030 2046     		mov	r0, r4
 735 0032 4549     		ldr	r1, .L95+8
 736 0034 FFF7FEFF 		bl	chprintf
 737              	.LVL59:
 738              		.loc 1 420 0 discriminator 2
 739 0038 B542     		cmp	r5, r6
 740 003a F7D1     		bne	.L84
 741              		.loc 1 422 0
 742 003c 2046     		mov	r0, r4
 743 003e 4349     		ldr	r1, .L95+12
 744 0040 FFF7FEFF 		bl	chprintf
 745              	.LVL60:
 746 0044 424D     		ldr	r5, .L95+16
 747              		.loc 1 403 0
 748 0046 05F10806 		add	r6, r5, #8
 749              	.LVL61:
 750              	.L85:
 751              		.loc 1 424 0 discriminator 2
 752 004a 15F8012F 		ldrb	r2, [r5, #1]!	@ zero_extendqisi2
 753 004e 2046     		mov	r0, r4
 754 0050 3D49     		ldr	r1, .L95+8
 755 0052 FFF7FEFF 		bl	chprintf
 756              	.LVL62:
 757              		.loc 1 423 0 discriminator 2
 758 0056 B542     		cmp	r5, r6
 759 0058 F7D1     		bne	.L85
 760              		.loc 1 425 0
 761 005a 2046     		mov	r0, r4
 762 005c 3B49     		ldr	r1, .L95+12
 763 005e FFF7FEFF 		bl	chprintf
 764              	.LVL63:
 765 0062 3C4D     		ldr	r5, .L95+20
 766              		.loc 1 403 0
 767 0064 05F11806 		add	r6, r5, #24
 768              	.LVL64:
 769              	.L86:
 770              		.loc 1 428 0 discriminator 2
 771 0068 15F8012F 		ldrb	r2, [r5, #1]!	@ zero_extendqisi2
 772 006c 2046     		mov	r0, r4
 773 006e 3649     		ldr	r1, .L95+8
 774 0070 FFF7FEFF 		bl	chprintf
 775              	.LVL65:
 776              		.loc 1 427 0 discriminator 2
 777 0074 B542     		cmp	r5, r6
 778 0076 F7D1     		bne	.L86
 779              		.loc 1 429 0
 780 0078 2046     		mov	r0, r4
 781 007a 3449     		ldr	r1, .L95+12
 782 007c FFF7FEFF 		bl	chprintf
 783              	.LVL66:
 784 0080 354D     		ldr	r5, .L95+24
 785              		.loc 1 403 0
 786 0082 05F10806 		add	r6, r5, #8
 787              	.LVL67:
ARM GAS  C:\Users\GRACEK~1\AppData\Local\Temp\ccn5HBh9.s 			page 15


 788              	.L87:
 789              		.loc 1 431 0 discriminator 2
 790 0086 15F8012F 		ldrb	r2, [r5, #1]!	@ zero_extendqisi2
 791 008a 2046     		mov	r0, r4
 792 008c 2E49     		ldr	r1, .L95+8
 793 008e FFF7FEFF 		bl	chprintf
 794              	.LVL68:
 795              		.loc 1 430 0 discriminator 2
 796 0092 B542     		cmp	r5, r6
 797 0094 F7D1     		bne	.L87
 798              		.loc 1 432 0
 799 0096 2046     		mov	r0, r4
 800 0098 2C49     		ldr	r1, .L95+12
 801 009a FFF7FEFF 		bl	chprintf
 802              	.LVL69:
 803              		.loc 1 434 0
 804 009e 7A6E     		ldr	r2, [r7, #100]
 805 00a0 2046     		mov	r0, r4
 806 00a2 2E49     		ldr	r1, .L95+28
 807 00a4 FFF7FEFF 		bl	chprintf
 808              	.LVL70:
 809              		.loc 1 436 0
 810 00a8 2046     		mov	r0, r4
 811 00aa 2D49     		ldr	r1, .L95+32
 812 00ac FFF7FEFF 		bl	chprintf
 813              	.LVL71:
 814              		.loc 1 437 0
 815 00b0 2046     		mov	r0, r4
 816 00b2 97F82620 		ldrb	r2, [r7, #38]	@ zero_extendqisi2
 817 00b6 2B49     		ldr	r1, .L95+36
 818 00b8 FFF7FEFF 		bl	chprintf
 819              	.LVL72:
 820              		.loc 1 438 0
 821 00bc 2046     		mov	r0, r4
 822 00be 97F82720 		ldrb	r2, [r7, #39]	@ zero_extendqisi2
 823 00c2 2949     		ldr	r1, .L95+40
 824 00c4 FFF7FEFF 		bl	chprintf
 825              	.LVL73:
 826              		.loc 1 439 0
 827 00c8 2046     		mov	r0, r4
 828 00ca 97F82820 		ldrb	r2, [r7, #40]	@ zero_extendqisi2
 829 00ce 2749     		ldr	r1, .L95+44
 830 00d0 FFF7FEFF 		bl	chprintf
 831              	.LVL74:
 832              		.loc 1 440 0
 833 00d4 2046     		mov	r0, r4
 834 00d6 97F82920 		ldrb	r2, [r7, #41]	@ zero_extendqisi2
 835 00da 2549     		ldr	r1, .L95+48
 836 00dc FFF7FEFF 		bl	chprintf
 837              	.LVL75:
 838              		.loc 1 441 0
 839 00e0 97F82E30 		ldrb	r3, [r7, #46]	@ zero_extendqisi2
 840 00e4 97F82D20 		ldrb	r2, [r7, #45]	@ zero_extendqisi2
 841 00e8 2046     		mov	r0, r4
 842 00ea 2249     		ldr	r1, .L95+52
 843 00ec FFF7FEFF 		bl	chprintf
 844              	.LVL76:
ARM GAS  C:\Users\GRACEK~1\AppData\Local\Temp\ccn5HBh9.s 			page 16


 845              		.loc 1 442 0
 846 00f0 2046     		mov	r0, r4
 847 00f2 2149     		ldr	r1, .L95+56
 848 00f4 FFF7FEFF 		bl	chprintf
 849              	.LVL77:
 850              		.loc 1 443 0
 851 00f8 2046     		mov	r0, r4
 852 00fa 97F83220 		ldrb	r2, [r7, #50]	@ zero_extendqisi2
 853 00fe 1949     		ldr	r1, .L95+36
 854 0100 FFF7FEFF 		bl	chprintf
 855              	.LVL78:
 856              		.loc 1 444 0
 857 0104 2046     		mov	r0, r4
 858 0106 97F83320 		ldrb	r2, [r7, #51]	@ zero_extendqisi2
 859 010a 1749     		ldr	r1, .L95+40
 860 010c FFF7FEFF 		bl	chprintf
 861              	.LVL79:
 862              		.loc 1 445 0
 863 0110 2046     		mov	r0, r4
 864 0112 97F83420 		ldrb	r2, [r7, #52]	@ zero_extendqisi2
 865 0116 1549     		ldr	r1, .L95+44
 866 0118 FFF7FEFF 		bl	chprintf
 867              	.LVL80:
 868              		.loc 1 446 0
 869 011c 2046     		mov	r0, r4
 870 011e 97F83520 		ldrb	r2, [r7, #53]	@ zero_extendqisi2
 871 0122 1349     		ldr	r1, .L95+48
 872 0124 FFF7FEFF 		bl	chprintf
 873              	.LVL81:
 874              		.loc 1 447 0
 875 0128 1249     		ldr	r1, .L95+52
 876 012a 97F83920 		ldrb	r2, [r7, #57]	@ zero_extendqisi2
 877 012e 97F83A30 		ldrb	r3, [r7, #58]	@ zero_extendqisi2
 878 0132 2046     		mov	r0, r4
 879              		.loc 1 449 0
 880 0134 BDE8F041 		pop	{r4, r5, r6, r7, r8, lr}
 881              		.loc 1 447 0
 882 0138 FFF7FEBF 		b	chprintf
 883              	.LVL82:
 884              	.L94:
 885 013c 004F     		ldr	r7, .L95
 886 013e 72E7     		b	.L82
 887              	.L96:
 888              		.align	2
 889              	.L95:
 890 0140 00000000 		.word	.LANCHOR1
 891 0144 FFFFFFFF 		.word	.LANCHOR1-1
 892 0148 00000000 		.word	.LC0
 893 014c 08000000 		.word	.LC1
 894 0150 17000000 		.word	.LANCHOR1+23
 895 0154 1F000000 		.word	.LANCHOR1+31
 896 0158 37000000 		.word	.LANCHOR1+55
 897 015c 0C000000 		.word	.LC2
 898 0160 1C000000 		.word	.LC3
 899 0164 24000000 		.word	.LC4
 900 0168 30000000 		.word	.LC5
 901 016c 3C000000 		.word	.LC6
ARM GAS  C:\Users\GRACEK~1\AppData\Local\Temp\ccn5HBh9.s 			page 17


 902 0170 48000000 		.word	.LC7
 903 0174 54000000 		.word	.LC8
 904 0178 64000000 		.word	.LC9
 905              		.cfi_endproc
 906              	.LFE74:
 907              		.size	vexSpiDebug, .-vexSpiDebug
 908 017c AFF30080 		.section	.rodata.txInitData,"a",%progbits
 909              		.align	2
 910              		.set	.LANCHOR2,. + 0
 911              		.type	txInitData, %object
 912              		.size	txInitData, 32
 913              	txInitData:
 914 0000 17       		.byte	23
 915 0001 C9       		.byte	-55
 916 0002 02       		.byte	2
 917 0003 00       		.byte	0
 918 0004 00       		.byte	0
 919 0005 00       		.byte	0
 920 0006 7F       		.byte	127
 921 0007 7F       		.byte	127
 922 0008 7F       		.byte	127
 923 0009 7F       		.byte	127
 924 000a 7F       		.byte	127
 925 000b 7F       		.byte	127
 926 000c 7F       		.byte	127
 927 000d 7F       		.byte	127
 928 000e 00       		.byte	0
 929 000f 00       		.byte	0
 930 0010 00       		.byte	0
 931 0011 00       		.byte	0
 932 0012 00       		.byte	0
 933 0013 00       		.byte	0
 934 0014 00       		.byte	0
 935 0015 00       		.byte	0
 936 0016 00       		.byte	0
 937 0017 00       		.byte	0
 938 0018 00       		.byte	0
 939 0019 00       		.byte	0
 940 001a 00       		.byte	0
 941 001b 00       		.byte	0
 942 001c 00       		.byte	0
 943 001d 00       		.byte	0
 944 001e 01       		.byte	1
 945 001f 00       		.byte	0
 946              		.section	.data.spicfg,"aw",%progbits
 947              		.align	2
 948              		.set	.LANCHOR3,. + 0
 949              		.type	spicfg, %object
 950              		.size	spicfg, 12
 951              	spicfg:
 952 0000 00000000 		.word	0
 953 0004 00180140 		.word	1073813504
 954 0008 0000     		.short	0
 955 000a 2108     		.short	2081
 956              		.section	.rodata.vexSpiGpt,"a",%progbits
 957              		.align	2
 958              		.set	.LANCHOR4,. + 0
ARM GAS  C:\Users\GRACEK~1\AppData\Local\Temp\ccn5HBh9.s 			page 18


 959              		.type	vexSpiGpt, %object
 960              		.size	vexSpiGpt, 8
 961              	vexSpiGpt:
 962 0000 40420F00 		.word	1000000
 963 0004 00000000 		.word	_vspi_gpt_cb
 964              		.section	.rodata.str1.4,"aMS",%progbits,1
 965              		.align	2
 966              	.LC0:
 967 0000 25303258 		.ascii	"%02X \000"
 967      2000
 968 0006 0000     		.space	2
 969              	.LC1:
 970 0008 0D0A00   		.ascii	"\015\012\000"
 971 000b 00       		.space	1
 972              	.LC2:
 973 000c 6572726F 		.ascii	"errors %ld\015\012\000"
 973      72732025 
 973      6C640D0A 
 973      00
 974 0019 000000   		.space	3
 975              	.LC3:
 976 001c 4A533120 		.ascii	"JS1 - \000"
 976      2D2000
 977 0023 00       		.space	1
 978              	.LC4:
 979 0024 63683120 		.ascii	"ch1 %3d \000"
 979      25336420 
 979      00
 980 002d 000000   		.space	3
 981              	.LC5:
 982 0030 63683220 		.ascii	"ch2 %3d \000"
 982      25336420 
 982      00
 983 0039 000000   		.space	3
 984              	.LC6:
 985 003c 63683320 		.ascii	"ch3 %3d \000"
 985      25336420 
 985      00
 986 0045 000000   		.space	3
 987              	.LC7:
 988 0048 63683420 		.ascii	"ch4 %3d \000"
 988      25336420 
 988      00
 989 0051 000000   		.space	3
 990              	.LC8:
 991 0054 62757474 		.ascii	"button %2X%2X\015\012\000"
 991      6F6E2025 
 991      32582532 
 991      580D0A00 
 992              	.LC9:
 993 0064 4A533220 		.ascii	"JS2 - \000"
 993      2D2000
 994 006b 00       		.section	.bss.vexSpiData,"aw",%nobits
 995              		.align	2
 996              		.set	.LANCHOR1,. + 0
 997              		.type	vexSpiData, %object
 998              		.size	vexSpiData, 104
ARM GAS  C:\Users\GRACEK~1\AppData\Local\Temp\ccn5HBh9.s 			page 19


 999              	vexSpiData:
 1000 0000 00000000 		.space	104
 1000      00000000 
 1000      00000000 
 1000      00000000 
 1000      00000000 
 1001              		.section	.data.spiTeamName,"aw",%progbits
 1002              		.align	2
 1003              		.set	.LANCHOR5,. + 0
 1004              		.type	spiTeamName, %object
 1005              		.size	spiTeamName, 16
 1006              	spiTeamName:
 1007 0000 434F4E56 		.ascii	"CONVEX  \000"
 1007      45582020 
 1007      00
 1008 0009 00000000 		.space	7
 1008      000000
 1009              		.section	.bss.spiThread,"aw",%nobits
 1010              		.align	2
 1011              		.set	.LANCHOR0,. + 0
 1012              		.type	spiThread, %object
 1013              		.size	spiThread, 4
 1014              	spiThread:
 1015 0000 00000000 		.space	4
 1016              		.text
 1017              	.Letext0:
 1018              		.file 2 "c:\\program files\\pros\\toolchain\\bin\\../lib/gcc/arm-none-eabi/4.7.1/include/stddef.h"
 1019              		.file 3 "c:/program files/pros/toolchain/lib/gcc/../../arm-none-eabi/include/stdint.h"
 1020              		.file 4 "../ChibiOS_2.6.0/os/ports/GCC/ARMCMx/chtypes.h"
 1021              		.file 5 "../ChibiOS_2.6.0/os/kernel/include/chlists.h"
 1022              		.file 6 "../ChibiOS_2.6.0/os/kernel/include/chthreads.h"
 1023              		.file 7 "../ChibiOS_2.6.0/os/ports/GCC/ARMCMx/chcore_v7m.h"
 1024              		.file 8 "../ChibiOS_2.6.0/os/kernel/include/chschd.h"
 1025              		.file 9 "../ChibiOS_2.6.0/os/kernel/include/chmtx.h"
 1026              		.file 10 "../ChibiOS_2.6.0/os/kernel/include/chstreams.h"
 1027              		.file 11 "../ChibiOS_2.6.0/os/hal/platforms/STM32F1xx/stm32f10x.h"
 1028              		.file 12 "../ChibiOS_2.6.0/os/hal/platforms/STM32/stm32.h"
 1029              		.file 13 "../ChibiOS_2.6.0/os/hal/platforms/STM32F1xx/stm32_dma.h"
 1030              		.file 14 "../ChibiOS_2.6.0/os/hal/platforms/STM32/GPIOv1/pal_lld.h"
 1031              		.file 15 "../ChibiOS_2.6.0/os/hal/include/gpt.h"
 1032              		.file 16 "../ChibiOS_2.6.0/os/hal/platforms/STM32/gpt_lld.h"
 1033              		.file 17 "../ChibiOS_2.6.0/os/hal/include/spi.h"
 1034              		.file 18 "../ChibiOS_2.6.0/os/hal/platforms/STM32/SPIv1/spi_lld.h"
 1035              		.file 19 "../convex/cortex/fw/vexcompat.h"
 1036              		.file 20 "../convex/cortex/fw/vexdigital.h"
 1037              		.file 21 "../convex/cortex/fw/vexime.h"
 1038              		.file 22 "../convex/cortex/fw/vexspi.h"
 1039              		.file 23 "../ChibiOS_2.6.0/os/ports/common/ARMCMx/CMSIS/include/core_cm3.h"
 1040              		.file 24 "c:/program files/pros/toolchain/lib/gcc/../../arm-none-eabi/include/stdlib.h"
 1041              		.file 25 "../ChibiOS_2.6.0/os/various/chprintf.h"