ARM GAS  C:\Users\GRACEK~1\AppData\Local\Temp\cccFf3Yq.s 			page 1


   1              		.syntax unified
   2              		.cpu cortex-m3
   3              		.fpu softvfp
   4              		.eabi_attribute 20, 1
   5              		.eabi_attribute 21, 1
   6              		.eabi_attribute 23, 3
   7              		.eabi_attribute 24, 1
   8              		.eabi_attribute 25, 1
   9              		.eabi_attribute 26, 1
  10              		.eabi_attribute 30, 2
  11              		.eabi_attribute 34, 1
  12              		.eabi_attribute 18, 4
  13              		.thumb
  14              		.file	"vexsonar.c"
  15              		.text
  16              	.Ltext0:
  17              		.cfi_sections	.debug_frame
  18              		.section	.text._vs_echo_cb,"ax",%progbits
  19              		.align	2
  20              		.p2align 4,,15
  21              		.thumb
  22              		.thumb_func
  23              		.type	_vs_echo_cb, %function
  24              	_vs_echo_cb:
  25              	.LFB65:
  26              		.file 1 "../convex/cortex/fw/vexsonar.c"
  27              		.loc 1 202 0
  28              		.cfi_startproc
  29              		@ args = 0, pretend = 0, frame = 0
  30              		@ frame_needed = 0, uses_anonymous_args = 0
  31              		@ link register save eliminated.
  32              	.LVL0:
  33 0000 10B4     		push	{r4}
  34              	.LCFI0:
  35              		.cfi_def_cfa_offset 4
  36              		.cfi_offset 4, -4
  37              	.LBB2:
  38              		.loc 1 206 0
  39 0002 2023     		movs	r3, #32
  40              	.LVL1:
  41              	@ 206 "../convex/cortex/fw/vexsonar.c" 1
  42 0004 83F31188 		msr     BASEPRI, r3
  43              	@ 0 "" 2
  44              	.LVL2:
  45              		.thumb
  46              	.LBE2:
  47              		.loc 1 208 0
  48 0008 0E4B     		ldr	r3, .L6
  49              	.LVL3:
  50 000a 0F49     		ldr	r1, .L6+4
  51              	.LVL4:
  52 000c 1A78     		ldrb	r2, [r3, #0]	@ zero_extendqisi2
  53 000e 5201     		lsls	r2, r2, #5
  54 0010 8B18     		adds	r3, r1, r2
  55 0012 9869     		ldr	r0, [r3, #24]
  56              	.LVL5:
  57 0014 B3F91C40 		ldrsh	r4, [r3, #28]
ARM GAS  C:\Users\GRACEK~1\AppData\Local\Temp\cccFf3Yq.s 			page 2


  58 0018 8068     		ldr	r0, [r0, #8]
  59 001a 20FA04F0 		lsr	r0, r0, r4
  60 001e C007     		lsls	r0, r0, #31
  61 0020 0BD4     		bmi	.L5
  62              		.loc 1 212 0
  63 0022 0A4A     		ldr	r2, .L6+8
  64              		.loc 1 213 0
  65 0024 0A49     		ldr	r1, .L6+12
  66              		.loc 1 212 0
  67 0026 D268     		ldr	r2, [r2, #12]
  68              		.loc 1 213 0
  69 0028 0220     		movs	r0, #2
  70              		.loc 1 212 0
  71 002a 526A     		ldr	r2, [r2, #36]
  72              		.loc 1 213 0
  73 002c 0870     		strb	r0, [r1, #0]
  74              		.loc 1 212 0
  75 002e 5A80     		strh	r2, [r3, #2]	@ movhi
  76              	.L3:
  77              	.LBB3:
  78              		.loc 1 216 0
  79 0030 0023     		movs	r3, #0
  80              	.LVL6:
  81              	@ 216 "../convex/cortex/fw/vexsonar.c" 1
  82 0032 83F31188 		msr     BASEPRI, r3
  83              	@ 0 "" 2
  84              	.LVL7:
  85              		.thumb
  86              	.LBE3:
  87              		.loc 1 217 0
  88 0036 10BC     		pop	{r4}
  89 0038 7047     		bx	lr
  90              	.LVL8:
  91              	.L5:
  92              		.loc 1 209 0
  93 003a 044B     		ldr	r3, .L6+8
  94 003c DB68     		ldr	r3, [r3, #12]
  95 003e 5B6A     		ldr	r3, [r3, #36]
  96 0040 8B52     		strh	r3, [r1, r2]	@ movhi
  97 0042 F5E7     		b	.L3
  98              	.L7:
  99              		.align	2
 100              	.L6:
 101 0044 00000000 		.word	.LANCHOR0
 102 0048 00000000 		.word	.LANCHOR1
 103 004c 00000000 		.word	GPTD5
 104 0050 00000000 		.word	.LANCHOR2
 105              		.cfi_endproc
 106              	.LFE65:
 107              		.size	_vs_echo_cb, .-_vs_echo_cb
 108 0054 AFF30080 		.section	.text._vs_gpt_cb,"ax",%progbits
 108      AFF30080 
 108      AFF30080 
 109              		.align	2
 110              		.p2align 4,,15
 111              		.thumb
 112              		.thumb_func
ARM GAS  C:\Users\GRACEK~1\AppData\Local\Temp\cccFf3Yq.s 			page 3


 113              		.type	_vs_gpt_cb, %function
 114              	_vs_gpt_cb:
 115              	.LFB63:
 116              		.loc 1 95 0
 117              		.cfi_startproc
 118              		@ args = 0, pretend = 0, frame = 0
 119              		@ frame_needed = 0, uses_anonymous_args = 0
 120              	.LVL9:
 121 0000 10B5     		push	{r4, lr}
 122              	.LCFI1:
 123              		.cfi_def_cfa_offset 8
 124              		.cfi_offset 4, -8
 125              		.cfi_offset 14, -4
 126              	.LBB4:
 127              		.loc 1 98 0
 128 0002 2023     		movs	r3, #32
 129              	.LVL10:
 130              	@ 98 "../convex/cortex/fw/vexsonar.c" 1
 131 0004 83F31188 		msr     BASEPRI, r3
 132              	@ 0 "" 2
 133              	.LVL11:
 134              		.thumb
 135              	.LBE4:
 136              		.loc 1 100 0
 137 0008 134B     		ldr	r3, .L13
 138              	.LVL12:
 139 000a 1978     		ldrb	r1, [r3, #0]	@ zero_extendqisi2
 140 000c 91B1     		cbz	r1, .L11
 141              		.loc 1 107 0
 142 000e 0129     		cmp	r1, #1
 143 0010 03D0     		beq	.L12
 144              	.LVL13:
 145              	.L10:
 146              	.LBB5:
 147              		.loc 1 114 0
 148 0012 0023     		movs	r3, #0
 149              	.LVL14:
 150              	@ 114 "../convex/cortex/fw/vexsonar.c" 1
 151 0014 83F31188 		msr     BASEPRI, r3
 152              	@ 0 "" 2
 153              	.LVL15:
 154              		.thumb
 155 0018 10BD     		pop	{r4, pc}
 156              	.LVL16:
 157              	.L12:
 158              	.LBE5:
 159              		.loc 1 109 0
 160 001a 104A     		ldr	r2, .L13+4
 161 001c 1049     		ldr	r1, .L13+8
 162 001e 1278     		ldrb	r2, [r2, #0]	@ zero_extendqisi2
 163 0020 0024     		movs	r4, #0
 164 0022 5201     		lsls	r2, r2, #5
 165 0024 8818     		adds	r0, r1, r2
 166              	.LVL17:
 167 0026 8C52     		strh	r4, [r1, r2]	@ movhi
 168              		.loc 1 110 0
 169 0028 49F64042 		movw	r2, #40000
ARM GAS  C:\Users\GRACEK~1\AppData\Local\Temp\cccFf3Yq.s 			page 4


 170 002c 4280     		strh	r2, [r0, #2]	@ movhi
 171              		.loc 1 111 0
 172 002e 0322     		movs	r2, #3
 173 0030 1A70     		strb	r2, [r3, #0]
 174 0032 EEE7     		b	.L10
 175              	.LVL18:
 176              	.L11:
 177              		.loc 1 103 0
 178 0034 094A     		ldr	r2, .L13+4
 179 0036 1078     		ldrb	r0, [r2, #0]	@ zero_extendqisi2
 180              	.LVL19:
 181 0038 094A     		ldr	r2, .L13+8
 182 003a 02EB4012 		add	r2, r2, r0, lsl #5
 183 003e 92F90E00 		ldrsb	r0, [r2, #14]
 184              		.loc 1 102 0
 185 0042 0122     		movs	r2, #1
 186 0044 1A70     		strb	r2, [r3, #0]
 187              		.loc 1 103 0
 188 0046 FFF7FEFF 		bl	vexDigitalPinSet
 189              	.LVL20:
 190              		.loc 1 104 0
 191 004a 0648     		ldr	r0, .L13+12
 192 004c 49F64041 		movw	r1, #40000
 193 0050 FFF7FEFF 		bl	gptStartOneShotI
 194              	.LVL21:
 195 0054 DDE7     		b	.L10
 196              	.L14:
 197 0056 00BF     		.align	2
 198              	.L13:
 199 0058 00000000 		.word	.LANCHOR2
 200 005c 00000000 		.word	.LANCHOR0
 201 0060 00000000 		.word	.LANCHOR1
 202 0064 00000000 		.word	GPTD5
 203              		.cfi_endproc
 204              	.LFE63:
 205              		.size	_vs_gpt_cb, .-_vs_gpt_cb
 206 0068 AFF30080 		.section	.text.vexSonarAdd,"ax",%progbits
 206      AFF30080 
 207              		.align	2
 208              		.p2align 4,,15
 209              		.global	vexSonarAdd
 210              		.thumb
 211              		.thumb_func
 212              		.type	vexSonarAdd, %function
 213              	vexSonarAdd:
 214              	.LFB66:
 215              		.loc 1 228 0
 216              		.cfi_startproc
 217              		@ args = 0, pretend = 0, frame = 0
 218              		@ frame_needed = 0, uses_anonymous_args = 0
 219              	.LVL22:
 220              		.loc 1 229 0
 221 0000 0428     		cmp	r0, #4
 222              		.loc 1 228 0
 223 0002 2DE9F041 		push	{r4, r5, r6, r7, r8, lr}
 224              	.LCFI2:
 225              		.cfi_def_cfa_offset 24
ARM GAS  C:\Users\GRACEK~1\AppData\Local\Temp\cccFf3Yq.s 			page 5


 226              		.cfi_offset 4, -24
 227              		.cfi_offset 5, -20
 228              		.cfi_offset 6, -16
 229              		.cfi_offset 7, -12
 230              		.cfi_offset 8, -8
 231              		.cfi_offset 14, -4
 232              		.loc 1 228 0
 233 0006 0546     		mov	r5, r0
 234 0008 0C46     		mov	r4, r1
 235 000a 1646     		mov	r6, r2
 236              		.loc 1 229 0
 237 000c 03D8     		bhi	.L15
 238              		.loc 1 232 0
 239 000e 0B29     		cmp	r1, #11
 240 0010 01DC     		bgt	.L15
 241              		.loc 1 234 0
 242 0012 0B2A     		cmp	r2, #11
 243 0014 01DD     		ble	.L17
 244              	.L15:
 245 0016 BDE8F081 		pop	{r4, r5, r6, r7, r8, pc}
 246              	.L17:
 247              		.loc 1 240 0
 248 001a 0846     		mov	r0, r1
 249              	.LVL23:
 250 001c 0121     		movs	r1, #1
 251              	.LVL24:
 252 001e FFF7FEFF 		bl	vexDigitalModeSet
 253              	.LVL25:
 254              		.loc 1 242 0
 255 0022 134F     		ldr	r7, .L18
 256 0024 04EB4403 		add	r3, r4, r4, lsl #1
 257 0028 9B00     		lsls	r3, r3, #2
 258 002a FA18     		adds	r2, r7, r3
 259              		.loc 1 241 0
 260 002c 1149     		ldr	r1, .L18+4
 261              		.loc 1 242 0
 262 002e FB58     		ldr	r3, [r7, r3]
 263              		.loc 1 243 0
 264 0030 9288     		ldrh	r2, [r2, #4]
 265              		.loc 1 241 0
 266 0032 01EB4515 		add	r5, r1, r5, lsl #5
 267              		.loc 1 246 0
 268 0036 3046     		mov	r0, r6
 269 0038 0021     		movs	r1, #0
 270              		.loc 1 241 0
 271 003a AC73     		strb	r4, [r5, #14]
 272              		.loc 1 242 0
 273 003c 2B61     		str	r3, [r5, #16]
 274              		.loc 1 243 0
 275 003e AA82     		strh	r2, [r5, #20]	@ movhi
 276              		.loc 1 246 0
 277 0040 FFF7FEFF 		bl	vexDigitalModeSet
 278              	.LVL26:
 279              		.loc 1 248 0
 280 0044 06EB4603 		add	r3, r6, r6, lsl #1
 281 0048 9B00     		lsls	r3, r3, #2
 282 004a FA18     		adds	r2, r7, r3
ARM GAS  C:\Users\GRACEK~1\AppData\Local\Temp\cccFf3Yq.s 			page 6


 283              		.loc 1 249 0
 284 004c 9488     		ldrh	r4, [r2, #4]
 285              		.loc 1 248 0
 286 004e FF58     		ldr	r7, [r7, r3]
 287              		.loc 1 250 0
 288 0050 2146     		mov	r1, r4
 289 0052 094B     		ldr	r3, .L18+8
 290 0054 3846     		mov	r0, r7
 291 0056 0322     		movs	r2, #3
 292              		.loc 1 247 0
 293 0058 EE73     		strb	r6, [r5, #15]
 294              		.loc 1 248 0
 295 005a AF61     		str	r7, [r5, #24]
 296              		.loc 1 249 0
 297 005c AC83     		strh	r4, [r5, #28]	@ movhi
 298              		.loc 1 250 0
 299 005e FFF7FEFF 		bl	vexExtSet
 300              	.LVL27:
 301              		.loc 1 253 0
 302 0062 0323     		movs	r3, #3
 303              		.loc 1 241 0
 304 0064 05F10808 		add	r8, r5, #8
 305              		.loc 1 253 0
 306 0068 AB81     		strh	r3, [r5, #12]	@ movhi
 307 006a BDE8F081 		pop	{r4, r5, r6, r7, r8, pc}
 308              	.L19:
 309 006e 00BF     		.align	2
 310              	.L18:
 311 0070 00000000 		.word	vexioDefinition
 312 0074 00000000 		.word	.LANCHOR1
 313 0078 00000000 		.word	_vs_echo_cb
 314              		.cfi_endproc
 315              	.LFE66:
 316              		.size	vexSonarAdd, .-vexSonarAdd
 317 007c AFF30080 		.section	.text.vexSonarStart,"ax",%progbits
 318              		.align	2
 319              		.p2align 4,,15
 320              		.global	vexSonarStart
 321              		.thumb
 322              		.thumb_func
 323              		.type	vexSonarStart, %function
 324              	vexSonarStart:
 325              	.LFB67:
 326              		.loc 1 263 0
 327              		.cfi_startproc
 328              		@ args = 0, pretend = 0, frame = 0
 329              		@ frame_needed = 0, uses_anonymous_args = 0
 330              		@ link register save eliminated.
 331              	.LVL28:
 332              		.loc 1 264 0
 333 0000 054B     		ldr	r3, .L23
 334 0002 03EB4013 		add	r3, r3, r0, lsl #5
 335 0006 9A89     		ldrh	r2, [r3, #12]
 336 0008 D207     		lsls	r2, r2, #31
 337 000a 00D4     		bmi	.L22
 338 000c 7047     		bx	lr
 339              	.L22:
ARM GAS  C:\Users\GRACEK~1\AppData\Local\Temp\cccFf3Yq.s 			page 7


 340              		.loc 1 266 0
 341 000e 0348     		ldr	r0, .L23+4
 342              	.LVL29:
 343 0010 B3F91C10 		ldrsh	r1, [r3, #28]
 344              		.loc 1 268 0
 345              		.loc 1 266 0
 346 0014 FFF7FEBF 		b	extChannelEnable
 347              	.LVL30:
 348              	.L24:
 349              		.align	2
 350              	.L23:
 351 0018 00000000 		.word	.LANCHOR1
 352 001c 00000000 		.word	EXTD1
 353              		.cfi_endproc
 354              	.LFE67:
 355              		.size	vexSonarStart, .-vexSonarStart
 356              		.section	.text.vexSonarStop,"ax",%progbits
 357              		.align	2
 358              		.p2align 4,,15
 359              		.global	vexSonarStop
 360              		.thumb
 361              		.thumb_func
 362              		.type	vexSonarStop, %function
 363              	vexSonarStop:
 364              	.LFB68:
 365              		.loc 1 277 0
 366              		.cfi_startproc
 367              		@ args = 0, pretend = 0, frame = 0
 368              		@ frame_needed = 0, uses_anonymous_args = 0
 369              		@ link register save eliminated.
 370              	.LVL31:
 371              		.loc 1 278 0
 372 0000 054B     		ldr	r3, .L28
 373 0002 03EB4013 		add	r3, r3, r0, lsl #5
 374 0006 9A89     		ldrh	r2, [r3, #12]
 375 0008 D107     		lsls	r1, r2, #31
 376 000a 00D4     		bmi	.L27
 377 000c 7047     		bx	lr
 378              	.L27:
 379              		.loc 1 280 0
 380 000e 0348     		ldr	r0, .L28+4
 381              	.LVL32:
 382 0010 B3F91C10 		ldrsh	r1, [r3, #28]
 383              		.loc 1 282 0
 384              		.loc 1 280 0
 385 0014 FFF7FEBF 		b	extChannelDisable
 386              	.LVL33:
 387              	.L29:
 388              		.align	2
 389              	.L28:
 390 0018 00000000 		.word	.LANCHOR1
 391 001c 00000000 		.word	EXTD1
 392              		.cfi_endproc
 393              	.LFE68:
 394              		.size	vexSonarStop, .-vexSonarStop
 395              		.section	.text.vexSonarStartAll,"ax",%progbits
 396              		.align	2
ARM GAS  C:\Users\GRACEK~1\AppData\Local\Temp\cccFf3Yq.s 			page 8


 397              		.p2align 4,,15
 398              		.global	vexSonarStartAll
 399              		.thumb
 400              		.thumb_func
 401              		.type	vexSonarStartAll, %function
 402              	vexSonarStartAll:
 403              	.LFB69:
 404              		.loc 1 290 0
 405              		.cfi_startproc
 406              		@ args = 0, pretend = 0, frame = 0
 407              		@ frame_needed = 0, uses_anonymous_args = 0
 408              	.LVL34:
 409 0000 08B5     		push	{r3, lr}
 410              	.LCFI3:
 411              		.cfi_def_cfa_offset 8
 412              		.cfi_offset 3, -8
 413              		.cfi_offset 14, -4
 414              		.loc 1 294 0
 415 0002 0020     		movs	r0, #0
 416 0004 FFF7FEFF 		bl	vexSonarStart
 417              	.LVL35:
 418 0008 0120     		movs	r0, #1
 419 000a FFF7FEFF 		bl	vexSonarStart
 420              	.LVL36:
 421 000e 0220     		movs	r0, #2
 422 0010 FFF7FEFF 		bl	vexSonarStart
 423              	.LVL37:
 424 0014 0320     		movs	r0, #3
 425 0016 FFF7FEFF 		bl	vexSonarStart
 426              	.LVL38:
 427 001a 0420     		movs	r0, #4
 428              		.loc 1 295 0
 429 001c BDE80840 		pop	{r3, lr}
 430              		.loc 1 294 0
 431 0020 FFF7FEBF 		b	vexSonarStart
 432              	.LVL39:
 433              		.cfi_endproc
 434              	.LFE69:
 435              		.size	vexSonarStartAll, .-vexSonarStartAll
 436 0024 AFF30080 		.section	.text.vexSonarRun,"ax",%progbits
 436      AFF30080 
 436      AFF30080 
 437              		.align	2
 438              		.p2align 4,,15
 439              		.global	vexSonarRun
 440              		.thumb
 441              		.thumb_func
 442              		.type	vexSonarRun, %function
 443              	vexSonarRun:
 444              	.LFB70:
 445              		.loc 1 303 0
 446              		.cfi_startproc
 447              		@ args = 0, pretend = 0, frame = 0
 448              		@ frame_needed = 0, uses_anonymous_args = 0
 449 0000 10B5     		push	{r4, lr}
 450              	.LCFI4:
 451              		.cfi_def_cfa_offset 8
ARM GAS  C:\Users\GRACEK~1\AppData\Local\Temp\cccFf3Yq.s 			page 9


 452              		.cfi_offset 4, -8
 453              		.cfi_offset 14, -4
 454              		.loc 1 307 0
 455 0002 0F4C     		ldr	r4, .L37
 456              		.loc 1 303 0
 457 0004 82B0     		sub	sp, sp, #8
 458              	.LCFI5:
 459              		.cfi_def_cfa_offset 16
 460              		.loc 1 307 0
 461 0006 2368     		ldr	r3, [r4, #0]
 462 0008 0BB1     		cbz	r3, .L36
 463              	.L31:
 464              		.loc 1 319 0
 465 000a 02B0     		add	sp, sp, #8
 466 000c 10BD     		pop	{r4, pc}
 467              	.L36:
 468 000e 0D48     		ldr	r0, .L37+4
 469 0010 01E0     		b	.L34
 470              	.LVL40:
 471              	.L33:
 472              		.loc 1 311 0
 473 0012 052B     		cmp	r3, #5
 474 0014 F9D0     		beq	.L31
 475              	.LVL41:
 476              	.L34:
 477              		.loc 1 313 0
 478 0016 00EB4312 		add	r2, r0, r3, lsl #5
 479 001a 9289     		ldrh	r2, [r2, #12]
 480              		.loc 1 311 0
 481 001c 591C     		adds	r1, r3, #1
 482              		.loc 1 313 0
 483 001e 02F00202 		and	r2, r2, #2
 484 0022 12B2     		sxth	r2, r2
 485              		.loc 1 311 0
 486 0024 CBB2     		uxtb	r3, r1
 487              	.LVL42:
 488              		.loc 1 313 0
 489 0026 002A     		cmp	r2, #0
 490 0028 F3D0     		beq	.L33
 491              		.loc 1 315 0
 492 002a 0023     		movs	r3, #0
 493 002c 0093     		str	r3, [sp, #0]
 494 002e 0648     		ldr	r0, .L37+8
 495 0030 4FF4C071 		mov	r1, #384
 496              	.LVL43:
 497 0034 4822     		movs	r2, #72
 498 0036 054B     		ldr	r3, .L37+12
 499 0038 FFF7FEFF 		bl	chThdCreateStatic
 500              	.LVL44:
 501 003c 2060     		str	r0, [r4, #0]
 502              		.loc 1 316 0
 503 003e E4E7     		b	.L31
 504              	.L38:
 505              		.align	2
 506              	.L37:
 507 0040 00000000 		.word	.LANCHOR3
 508 0044 00000000 		.word	.LANCHOR1
ARM GAS  C:\Users\GRACEK~1\AppData\Local\Temp\cccFf3Yq.s 			page 10


 509 0048 00000000 		.word	.LANCHOR4
 510 004c 00000000 		.word	VexSonarTask
 511              		.cfi_endproc
 512              	.LFE70:
 513              		.size	vexSonarRun, .-vexSonarRun
 514              		.section	.text.vexSonarPing,"ax",%progbits
 515              		.align	2
 516              		.p2align 4,,15
 517              		.global	vexSonarPing
 518              		.thumb
 519              		.thumb_func
 520              		.type	vexSonarPing, %function
 521              	vexSonarPing:
 522              	.LFB71:
 523              		.loc 1 329 0
 524              		.cfi_startproc
 525              		@ args = 0, pretend = 0, frame = 0
 526              		@ frame_needed = 0, uses_anonymous_args = 0
 527              	.LVL45:
 528 0000 08B5     		push	{r3, lr}
 529              	.LCFI6:
 530              		.cfi_def_cfa_offset 8
 531              		.cfi_offset 3, -8
 532              		.cfi_offset 14, -4
 533              		.loc 1 330 0
 534 0002 0B4B     		ldr	r3, .L42
 535 0004 03EB4010 		add	r0, r3, r0, lsl #5
 536              	.LVL46:
 537 0008 B0F90C30 		ldrsh	r3, [r0, #12]
 538 000c 0830     		adds	r0, r0, #8
 539 000e 032B     		cmp	r3, #3
 540 0010 00D0     		beq	.L41
 541 0012 08BD     		pop	{r3, pc}
 542              	.L41:
 543              		.loc 1 331 0
 544 0014 0121     		movs	r1, #1
 545 0016 90F90600 		ldrsb	r0, [r0, #6]
 546 001a FFF7FEFF 		bl	vexDigitalPinSet
 547              	.LVL47:
 548              		.loc 1 332 0
 549 001e 054B     		ldr	r3, .L42+4
 550              		.loc 1 333 0
 551 0020 0548     		ldr	r0, .L42+8
 552              		.loc 1 332 0
 553 0022 0022     		movs	r2, #0
 554              		.loc 1 333 0
 555 0024 0A21     		movs	r1, #10
 556              		.loc 1 332 0
 557 0026 1A70     		strb	r2, [r3, #0]
 558              		.loc 1 335 0
 559 0028 BDE80840 		pop	{r3, lr}
 560              		.loc 1 333 0
 561 002c FFF7FEBF 		b	gptStartOneShot
 562              	.LVL48:
 563              	.L43:
 564              		.align	2
 565              	.L42:
ARM GAS  C:\Users\GRACEK~1\AppData\Local\Temp\cccFf3Yq.s 			page 11


 566 0030 00000000 		.word	.LANCHOR1
 567 0034 00000000 		.word	.LANCHOR2
 568 0038 00000000 		.word	GPTD5
 569              		.cfi_endproc
 570              	.LFE71:
 571              		.size	vexSonarPing, .-vexSonarPing
 572 003c AFF30080 		.section	.text.VexSonarTask,"ax",%progbits
 573              		.align	2
 574              		.p2align 4,,15
 575              		.thumb
 576              		.thumb_func
 577              		.type	VexSonarTask, %function
 578              	VexSonarTask:
 579              	.LFB64:
 580              		.loc 1 137 0
 581              		.cfi_startproc
 582              		@ args = 0, pretend = 0, frame = 0
 583              		@ frame_needed = 0, uses_anonymous_args = 0
 584              	.LVL49:
 585 0000 2DE9F047 		push	{r4, r5, r6, r7, r8, r9, sl, lr}
 586              	.LCFI7:
 587              		.cfi_def_cfa_offset 32
 588              		.cfi_offset 4, -32
 589              		.cfi_offset 5, -28
 590              		.cfi_offset 6, -24
 591              		.cfi_offset 7, -20
 592              		.cfi_offset 8, -16
 593              		.cfi_offset 9, -12
 594              		.cfi_offset 10, -8
 595              		.cfi_offset 14, -4
 596              		.loc 1 142 0
 597 0004 DFF8F080 		ldr	r8, .L67+20
 598 0008 364A     		ldr	r2, .L67
 599 000a D8F81830 		ldr	r3, [r8, #24]
 600              		.loc 1 144 0
 601 000e 3648     		ldr	r0, .L67+4
 602              	.LVL50:
 603              		.loc 1 142 0
 604 0010 9A61     		str	r2, [r3, #24]
 605              		.loc 1 144 0
 606 0012 3649     		ldr	r1, .L67+8
 607 0014 FFF7FEFF 		bl	gptStart
 608              	.LVL51:
 609              		.loc 1 168 0
 610 0018 4CF60936 		movw	r6, #51977
 611              		.loc 1 169 0
 612 001c 4CF6A705 		movw	r5, #51367
 613              		.loc 1 148 0
 614 0020 334C     		ldr	r4, .L67+12
 615 0022 DFF8D890 		ldr	r9, .L67+24
 616              		.loc 1 156 0
 617 0026 334F     		ldr	r7, .L67+16
 618              		.loc 1 168 0
 619 0028 C8F63D56 		movt	r6, 36157
 620              		.loc 1 169 0
 621 002c CDF66755 		movt	r5, 56679
 622              	.L61:
ARM GAS  C:\Users\GRACEK~1\AppData\Local\Temp\cccFf3Yq.s 			page 12


 623              		.loc 1 146 0 discriminator 1
 624 0030 D8F81830 		ldr	r3, [r8, #24]
 625 0034 5B7F     		ldrb	r3, [r3, #29]	@ zero_extendqisi2
 626 0036 03F00403 		and	r3, r3, #4
 627 003a DBB2     		uxtb	r3, r3
 628 003c 002B     		cmp	r3, #0
 629 003e 4DD1     		bne	.L64
 630              		.loc 1 148 0
 631 0040 2078     		ldrb	r0, [r4, #0]	@ zero_extendqisi2
 632 0042 DFF8B8A0 		ldr	sl, .L67+24
 633 0046 09EB4013 		add	r3, r9, r0, lsl #5
 634 004a B3F90C30 		ldrsh	r3, [r3, #12]
 635 004e 032B     		cmp	r3, #3
 636 0050 03D0     		beq	.L65
 637              		.loc 1 190 0
 638 0052 1920     		movs	r0, #25
 639 0054 FFF7FEFF 		bl	chThdSleep
 640              	.LVL52:
 641 0058 EAE7     		b	.L61
 642              	.L65:
 643              		.loc 1 151 0
 644 005a FFF7FEFF 		bl	vexSonarPing
 645              	.LVL53:
 646              		.loc 1 156 0
 647 005e F868     		ldr	r0, [r7, #12]
 648 0060 3230     		adds	r0, r0, #50
 649 0062 FFF7FEFF 		bl	chThdSleepUntil
 650              	.LVL54:
 651              		.loc 1 159 0
 652 0066 224B     		ldr	r3, .L67+12
 653 0068 1B78     		ldrb	r3, [r3, #0]	@ zero_extendqisi2
 654 006a 5801     		lsls	r0, r3, #5
 655 006c 0AEB0001 		add	r1, sl, r0
 656 0070 B1F802C0 		ldrh	ip, [r1, #2]
 657 0074 3AF80020 		ldrh	r2, [sl, r0]
 658 0078 C2EB0C02 		rsb	r2, r2, ip
 659              		.loc 1 162 0
 660 007c 48F6B80C 		movw	ip, #35000
 661 0080 6245     		cmp	r2, ip
 662              		.loc 1 159 0
 663 0082 4A60     		str	r2, [r1, #4]
 664              		.loc 1 163 0
 665 0084 C4BF     		itt	gt
 666 0086 4FF0FF32 		movgt	r2, #-1
 667 008a 4A60     		strgt	r2, [r1, #4]
 668              		.loc 1 162 0
 669 008c 14DD     		ble	.L66
 670              	.L48:
 671              		.loc 1 173 0
 672 008e 4844     		add	r0, r9, r0
 673 0090 4FF6FF72 		movw	r2, #65535
 674 0094 0281     		strh	r2, [r0, #8]	@ movhi
 675              		.loc 1 174 0
 676 0096 4281     		strh	r2, [r0, #10]	@ movhi
 677              	.L49:
 678              	.LVL55:
 679              		.loc 1 137 0 discriminator 1
ARM GAS  C:\Users\GRACEK~1\AppData\Local\Temp\cccFf3Yq.s 			page 13


 680 0098 0522     		movs	r2, #5
 681              	.LVL56:
 682              	.L53:
 683              		.loc 1 180 0
 684 009a 0133     		adds	r3, r3, #1
 685 009c DBB2     		uxtb	r3, r3
 686 009e 052B     		cmp	r3, #5
 687 00a0 08BF     		it	eq
 688 00a2 0023     		moveq	r3, #0
 689              		.loc 1 184 0
 690 00a4 09EB4311 		add	r1, r9, r3, lsl #5
 691 00a8 B1F90C10 		ldrsh	r1, [r1, #12]
 692 00ac 0329     		cmp	r1, #3
 693 00ae 01D0     		beq	.L63
 694              		.loc 1 178 0
 695 00b0 013A     		subs	r2, r2, #1
 696 00b2 F2D1     		bne	.L53
 697              	.L63:
 698 00b4 2370     		strb	r3, [r4, #0]
 699 00b6 BBE7     		b	.L61
 700              	.L66:
 701              		.loc 1 166 0
 702 00b8 B2F1FF3F 		cmp	r2, #-1
 703 00bc E7D0     		beq	.L48
 704              		.loc 1 168 0
 705 00be 86FB020C 		smull	r0, ip, r6, r2
 706              		.loc 1 169 0
 707 00c2 85FB020A 		smull	r0, sl, r5, r2
 708              		.loc 1 168 0
 709 00c6 9444     		add	ip, ip, r2
 710 00c8 D017     		asrs	r0, r2, #31
 711              		.loc 1 169 0
 712 00ca 5244     		add	r2, sl, r2
 713              		.loc 1 168 0
 714 00cc C0EB6C1C 		rsb	ip, r0, ip, asr #5
 715              		.loc 1 169 0
 716 00d0 C0EBE210 		rsb	r0, r0, r2, asr #7
 717              		.loc 1 168 0
 718 00d4 A1F808C0 		strh	ip, [r1, #8]	@ movhi
 719              		.loc 1 169 0
 720 00d8 4881     		strh	r0, [r1, #10]	@ movhi
 721 00da DDE7     		b	.L49
 722              	.L64:
 723              		.loc 1 194 0
 724 00dc 0020     		movs	r0, #0
 725 00de BDE8F087 		pop	{r4, r5, r6, r7, r8, r9, sl, pc}
 726              	.L68:
 727 00e2 00BF     		.align	2
 728              	.L67:
 729 00e4 00000000 		.word	.LC0
 730 00e8 00000000 		.word	GPTD5
 731 00ec 00000000 		.word	.LANCHOR5
 732 00f0 00000000 		.word	.LANCHOR0
 733 00f4 00000000 		.word	vtlist
 734 00f8 00000000 		.word	rlist
 735 00fc 00000000 		.word	.LANCHOR1
 736              		.cfi_endproc
ARM GAS  C:\Users\GRACEK~1\AppData\Local\Temp\cccFf3Yq.s 			page 14


 737              	.LFE64:
 738              		.size	VexSonarTask, .-VexSonarTask
 739              		.section	.text.vexSonarGetCm,"ax",%progbits
 740              		.align	2
 741              		.p2align 4,,15
 742              		.global	vexSonarGetCm
 743              		.thumb
 744              		.thumb_func
 745              		.type	vexSonarGetCm, %function
 746              	vexSonarGetCm:
 747              	.LFB72:
 748              		.loc 1 345 0
 749              		.cfi_startproc
 750              		@ args = 0, pretend = 0, frame = 0
 751              		@ frame_needed = 0, uses_anonymous_args = 0
 752              		@ link register save eliminated.
 753              	.LVL57:
 754              		.loc 1 346 0
 755 0000 064B     		ldr	r3, .L72
 756 0002 03EB4010 		add	r0, r3, r0, lsl #5
 757              	.LVL58:
 758 0006 8389     		ldrh	r3, [r0, #12]
 759 0008 03F00203 		and	r3, r3, #2
 760 000c 1BB2     		sxth	r3, r3
 761 000e 13B1     		cbz	r3, .L71
 762              		.loc 1 347 0
 763 0010 0089     		ldrh	r0, [r0, #8]
 764              	.L70:
 765              		.loc 1 351 0
 766 0012 00B2     		sxth	r0, r0
 767 0014 7047     		bx	lr
 768              	.L71:
 769              		.loc 1 350 0
 770 0016 4FF6FF70 		movw	r0, #65535
 771 001a FAE7     		b	.L70
 772              	.L73:
 773              		.align	2
 774              	.L72:
 775 001c 00000000 		.word	.LANCHOR1
 776              		.cfi_endproc
 777              	.LFE72:
 778              		.size	vexSonarGetCm, .-vexSonarGetCm
 779              		.section	.text.vexSonarGetInch,"ax",%progbits
 780              		.align	2
 781              		.p2align 4,,15
 782              		.global	vexSonarGetInch
 783              		.thumb
 784              		.thumb_func
 785              		.type	vexSonarGetInch, %function
 786              	vexSonarGetInch:
 787              	.LFB73:
 788              		.loc 1 361 0
 789              		.cfi_startproc
 790              		@ args = 0, pretend = 0, frame = 0
 791              		@ frame_needed = 0, uses_anonymous_args = 0
 792              		@ link register save eliminated.
 793              	.LVL59:
ARM GAS  C:\Users\GRACEK~1\AppData\Local\Temp\cccFf3Yq.s 			page 15


 794              		.loc 1 362 0
 795 0000 074B     		ldr	r3, .L77
 796 0002 03EB4010 		add	r0, r3, r0, lsl #5
 797              	.LVL60:
 798 0006 8389     		ldrh	r3, [r0, #12]
 799 0008 0830     		adds	r0, r0, #8
 800 000a 03F00203 		and	r3, r3, #2
 801 000e 1BB2     		sxth	r3, r3
 802 0010 13B1     		cbz	r3, .L76
 803              		.loc 1 363 0
 804 0012 4088     		ldrh	r0, [r0, #2]
 805              	.L75:
 806              		.loc 1 367 0
 807 0014 00B2     		sxth	r0, r0
 808 0016 7047     		bx	lr
 809              	.L76:
 810              		.loc 1 366 0
 811 0018 4FF6FF70 		movw	r0, #65535
 812 001c FAE7     		b	.L75
 813              	.L78:
 814 001e 00BF     		.align	2
 815              	.L77:
 816 0020 00000000 		.word	.LANCHOR1
 817              		.cfi_endproc
 818              	.LFE73:
 819              		.size	vexSonarGetInch, .-vexSonarGetInch
 820 0024 AFF30080 		.section	.text.vexSonarDebug,"ax",%progbits
 820      AFF30080 
 820      AFF30080 
 821              		.align	2
 822              		.p2align 4,,15
 823              		.global	vexSonarDebug
 824              		.thumb
 825              		.thumb_func
 826              		.type	vexSonarDebug, %function
 827              	vexSonarDebug:
 828              	.LFB74:
 829              		.loc 1 378 0
 830              		.cfi_startproc
 831              		@ args = 0, pretend = 0, frame = 0
 832              		@ frame_needed = 0, uses_anonymous_args = 0
 833              	.LVL61:
 834 0000 2DE9F041 		push	{r4, r5, r6, r7, r8, lr}
 835              	.LCFI8:
 836              		.cfi_def_cfa_offset 24
 837              		.cfi_offset 4, -24
 838              		.cfi_offset 5, -20
 839              		.cfi_offset 6, -16
 840              		.cfi_offset 7, -12
 841              		.cfi_offset 8, -8
 842              		.cfi_offset 14, -4
 843 0004 DFF85480 		ldr	r8, .L82+8
 844 0008 82B0     		sub	sp, sp, #8
 845              	.LCFI9:
 846              		.cfi_def_cfa_offset 32
 847              		.loc 1 378 0
 848 000a 0746     		mov	r7, r0
ARM GAS  C:\Users\GRACEK~1\AppData\Local\Temp\cccFf3Yq.s 			page 16


 849              		.loc 1 384 0
 850 000c 0024     		movs	r4, #0
 851              	.LVL62:
 852              	.L80:
 853              		.loc 1 386 0 discriminator 2
 854 000e 6201     		lsls	r2, r4, #5
 855 0010 08EB0205 		add	r5, r8, r2
 856 0014 38F802E0 		ldrh	lr, [r8, r2]
 857 0018 6888     		ldrh	r0, [r5, #2]
 858 001a B5F90C30 		ldrsh	r3, [r5, #12]
 859 001e 2246     		mov	r2, r4
 860 0020 0C49     		ldr	r1, .L82
 861 0022 CDF800E0 		str	lr, [sp, #0]
 862 0026 0190     		str	r0, [sp, #4]
 863 0028 3846     		mov	r0, r7
 864 002a FFF7FEFF 		bl	vex_chprintf
 865              	.LVL63:
 866              		.loc 1 387 0 discriminator 2
 867 002e B5F90A10 		ldrsh	r1, [r5, #10]
 868              		.loc 1 384 0 discriminator 2
 869 0032 0134     		adds	r4, r4, #1
 870              		.loc 1 387 0 discriminator 2
 871 0034 6A68     		ldr	r2, [r5, #4]
 872 0036 B5F90830 		ldrsh	r3, [r5, #8]
 873 003a 3846     		mov	r0, r7
 874 003c 0091     		str	r1, [sp, #0]
 875              		.loc 1 384 0 discriminator 2
 876 003e E4B2     		uxtb	r4, r4
 877              		.loc 1 387 0 discriminator 2
 878 0040 0549     		ldr	r1, .L82+4
 879 0042 FFF7FEFF 		bl	vex_chprintf
 880              	.LVL64:
 881              		.loc 1 384 0 discriminator 2
 882 0046 052C     		cmp	r4, #5
 883              		.loc 1 386 0 discriminator 2
 884 0048 05F10806 		add	r6, r5, #8
 885              		.loc 1 384 0 discriminator 2
 886 004c DFD1     		bne	.L80
 887              		.loc 1 389 0
 888 004e 02B0     		add	sp, sp, #8
 889 0050 BDE8F081 		pop	{r4, r5, r6, r7, r8, pc}
 890              	.L83:
 891              		.align	2
 892              	.L82:
 893 0054 08000000 		.word	.LC1
 894 0058 18000000 		.word	.LC2
 895 005c 00000000 		.word	.LANCHOR1
 896              		.cfi_endproc
 897              	.LFE74:
 898              		.size	vexSonarDebug, .-vexSonarDebug
 899              		.section	.bss.vexSonarThread,"aw",%nobits
 900              		.align	2
 901              		.set	.LANCHOR3,. + 0
 902              		.type	vexSonarThread, %object
 903              		.size	vexSonarThread, 4
 904              	vexSonarThread:
 905 0000 00000000 		.space	4
ARM GAS  C:\Users\GRACEK~1\AppData\Local\Temp\cccFf3Yq.s 			page 17


 906              		.section	.bss.waVexSonarTask,"aw",%nobits
 907              		.align	3
 908              		.set	.LANCHOR4,. + 0
 909              		.type	waVexSonarTask, %object
 910              		.size	waVexSonarTask, 384
 911              	waVexSonarTask:
 912 0000 00000000 		.space	384
 912      00000000 
 912      00000000 
 912      00000000 
 912      00000000 
 913              		.section	.bss.nextSonar,"aw",%nobits
 914              		.set	.LANCHOR0,. + 0
 915              		.type	nextSonar, %object
 916              		.size	nextSonar, 1
 917              	nextSonar:
 918 0000 00       		.space	1
 919              		.section	.bss.vexSonars,"aw",%nobits
 920              		.align	2
 921              		.set	.LANCHOR1,. + 0
 922              		.type	vexSonars, %object
 923              		.size	vexSonars, 160
 924              	vexSonars:
 925 0000 00000000 		.space	160
 925      00000000 
 925      00000000 
 925      00000000 
 925      00000000 
 926              		.section	.rodata.vexSonarGpt,"a",%progbits
 927              		.align	2
 928              		.set	.LANCHOR5,. + 0
 929              		.type	vexSonarGpt, %object
 930              		.size	vexSonarGpt, 8
 931              	vexSonarGpt:
 932 0000 40420F00 		.word	1000000
 933 0004 00000000 		.word	_vs_gpt_cb
 934              		.section	.rodata.str1.4,"aMS",%progbits,1
 935              		.align	2
 936              	.LC0:
 937 0000 736F6E61 		.ascii	"sonar\000"
 937      7200
 938 0006 0000     		.space	2
 939              	.LC1:
 940 0008 53256420 		.ascii	"S%d %d %5d %5d \000"
 940      25642025 
 940      35642025 
 940      35642000 
 941              	.LC2:
 942 0018 25356420 		.ascii	"%5d %4d(cm) %3d(inch)\015\012\000"
 942      25346428 
 942      636D2920 
 942      25336428 
 942      696E6368 
 943              		.section	.bss.nextState,"aw",%nobits
 944              		.set	.LANCHOR2,. + 0
 945              		.type	nextState, %object
 946              		.size	nextState, 1
ARM GAS  C:\Users\GRACEK~1\AppData\Local\Temp\cccFf3Yq.s 			page 18


 947              	nextState:
 948 0000 00       		.space	1
 949              		.text
 950              	.Letext0:
 951              		.file 2 "c:\\program files\\pros\\toolchain\\bin\\../lib/gcc/arm-none-eabi/4.7.1/include/stddef.h"
 952              		.file 3 "c:/program files/pros/toolchain/lib/gcc/../../arm-none-eabi/include/stdint.h"
 953              		.file 4 "../ChibiOS_2.6.0/os/ports/GCC/ARMCMx/chtypes.h"
 954              		.file 5 "../ChibiOS_2.6.0/os/kernel/include/chlists.h"
 955              		.file 6 "../ChibiOS_2.6.0/os/kernel/include/chthreads.h"
 956              		.file 7 "../ChibiOS_2.6.0/os/ports/GCC/ARMCMx/chcore_v7m.h"
 957              		.file 8 "../ChibiOS_2.6.0/os/kernel/include/chvt.h"
 958              		.file 9 "../ChibiOS_2.6.0/os/kernel/include/chschd.h"
 959              		.file 10 "../ChibiOS_2.6.0/os/kernel/include/chmtx.h"
 960              		.file 11 "../ChibiOS_2.6.0/os/kernel/include/chstreams.h"
 961              		.file 12 "../ChibiOS_2.6.0/os/hal/platforms/STM32F1xx/stm32f10x.h"
 962              		.file 13 "../ChibiOS_2.6.0/os/hal/platforms/STM32/stm32.h"
 963              		.file 14 "../ChibiOS_2.6.0/os/hal/platforms/STM32/GPIOv1/pal_lld.h"
 964              		.file 15 "../ChibiOS_2.6.0/os/hal/include/ext.h"
 965              		.file 16 "../ChibiOS_2.6.0/os/hal/platforms/STM32/ext_lld.h"
 966              		.file 17 "../ChibiOS_2.6.0/os/hal/include/gpt.h"
 967              		.file 18 "../ChibiOS_2.6.0/os/hal/platforms/STM32/gpt_lld.h"
 968              		.file 19 "../convex/cortex/fw/vexcompat.h"
 969              		.file 20 "../convex/cortex/fw/vexdigital.h"
 970              		.file 21 "../convex/cortex/fw/vexsonar.h"
 971              		.file 22 "../convex/cortex/fw/vexime.h"
 972              		.file 23 "../ChibiOS_2.6.0/os/ports/common/ARMCMx/CMSIS/include/core_cm3.h"
 973              		.file 24 "../convex/cortex/fw/vexprintf.h"