ARM GAS  C:\Users\GRACEK~1\AppData\Local\Temp\ccykIasE.s 			page 1


   1              		.syntax unified
   2              		.cpu cortex-m3
   3              		.fpu softvfp
   4              		.eabi_attribute 20, 1
   5              		.eabi_attribute 21, 1
   6              		.eabi_attribute 23, 3
   7              		.eabi_attribute 24, 1
   8              		.eabi_attribute 25, 1
   9              		.eabi_attribute 26, 1
  10              		.eabi_attribute 30, 2
  11              		.eabi_attribute 34, 1
  12              		.eabi_attribute 18, 4
  13              		.thumb
  14              		.file	"vexuser.c"
  15              		.text
  16              	.Ltext0:
  17              		.cfi_sections	.debug_frame
  18              		.section	.text.isEnabled,"ax",%progbits
  19              		.align	2
  20              		.p2align 4,,15
  21              		.global	isEnabled
  22              		.thumb
  23              		.thumb_func
  24              		.type	isEnabled, %function
  25              	isEnabled:
  26              	.LFB63:
  27              		.file 1 "vexuser.c"
  28              		.loc 1 104 0
  29              		.cfi_startproc
  30              		@ args = 0, pretend = 0, frame = 0
  31              		@ frame_needed = 0, uses_anonymous_args = 0
  32 0000 08B5     		push	{r3, lr}
  33              	.LCFI0:
  34              		.cfi_def_cfa_offset 8
  35              		.cfi_offset 3, -8
  36              		.cfi_offset 14, -4
  37              		.loc 1 105 0
  38 0002 FFF7FEFF 		bl	vexControllerCompetitonState
  39              	.LVL0:
  40 0006 80F08000 		eor	r0, r0, #128
  41              		.loc 1 106 0
  42 000a C0F3C010 		ubfx	r0, r0, #7, #1
  43 000e 08BD     		pop	{r3, pc}
  44              		.cfi_endproc
  45              	.LFE63:
  46              		.size	isEnabled, .-isEnabled
  47              		.section	.text.autoSelect,"ax",%progbits
  48              		.align	2
  49              		.p2align 4,,15
  50              		.global	autoSelect
  51              		.thumb
  52              		.thumb_func
  53              		.type	autoSelect, %function
  54              	autoSelect:
  55              	.LFB64:
  56              		.loc 1 108 0
  57              		.cfi_startproc
ARM GAS  C:\Users\GRACEK~1\AppData\Local\Temp\ccykIasE.s 			page 2


  58              		@ args = 0, pretend = 0, frame = 0
  59              		@ frame_needed = 0, uses_anonymous_args = 0
  60 0000 70B5     		push	{r4, r5, r6, lr}
  61              	.LCFI1:
  62              		.cfi_def_cfa_offset 16
  63              		.cfi_offset 4, -16
  64              		.cfi_offset 5, -12
  65              		.cfi_offset 6, -8
  66              		.cfi_offset 14, -4
  67              		.loc 1 109 0
  68 0002 FFF7FEFF 		bl	isEnabled
  69              	.LVL1:
  70              		.loc 1 111 0
  71 0006 174D     		ldr	r5, .L12
  72              		.loc 1 119 0
  73 0008 174E     		ldr	r6, .L12+4
  74              		.loc 1 109 0
  75 000a 0446     		mov	r4, r0
  76 000c 48BB     		cbnz	r0, .L11
  77              	.L8:
  78              		.loc 1 110 0
  79 000e 0121     		movs	r1, #1
  80 0010 FFF7FEFF 		bl	vexLcdBacklight
  81              	.LVL2:
  82              		.loc 1 111 0
  83 0014 2046     		mov	r0, r4
  84 0016 FFF7FEFF 		bl	vexLcdButtonGet
  85              	.LVL3:
  86              		.loc 1 113 0
  87 001a 2146     		mov	r1, r4
  88              		.loc 1 111 0
  89 001c 2860     		str	r0, [r5, #0]
  90              		.loc 1 113 0
  91 001e 134A     		ldr	r2, .L12+8
  92 0020 2046     		mov	r0, r4
  93 0022 FFF7FEFF 		bl	vexLcdSet
  94              	.LVL4:
  95              		.loc 1 114 0
  96 0026 0121     		movs	r1, #1
  97 0028 2046     		mov	r0, r4
  98 002a 114A     		ldr	r2, .L12+12
  99 002c FFF7FEFF 		bl	vexLcdSet
 100              	.LVL5:
 101              		.loc 1 116 0
 102 0030 2B68     		ldr	r3, [r5, #0]
 103 0032 012B     		cmp	r3, #1
 104              		.loc 1 117 0
 105 0034 08BF     		it	eq
 106 0036 3360     		streq	r3, [r6, #0]
 107              		.loc 1 116 0
 108 0038 06D0     		beq	.L9
 109              		.loc 1 118 0
 110 003a 042B     		cmp	r3, #4
 111              		.loc 1 119 0
 112 003c 08BF     		it	eq
 113 003e 3460     		streq	r4, [r6, #0]
 114 0040 02E0     		b	.L9
ARM GAS  C:\Users\GRACEK~1\AppData\Local\Temp\ccykIasE.s 			page 3


 115              	.L7:
 116              		.loc 1 123 0
 117 0042 1920     		movs	r0, #25
 118 0044 FFF7FEFF 		bl	vexSleep
 119              	.LVL6:
 120              	.L9:
 121              		.loc 1 122 0 discriminator 1
 122 0048 0020     		movs	r0, #0
 123 004a FFF7FEFF 		bl	vexLcdButtonGet
 124              	.LVL7:
 125 004e 0028     		cmp	r0, #0
 126 0050 F7D1     		bne	.L7
 127              		.loc 1 126 0
 128 0052 1920     		movs	r0, #25
 129 0054 FFF7FEFF 		bl	vexSleep
 130              	.LVL8:
 131              		.loc 1 109 0
 132 0058 FFF7FEFF 		bl	isEnabled
 133              	.LVL9:
 134 005c 0446     		mov	r4, r0
 135 005e 0028     		cmp	r0, #0
 136 0060 D5D0     		beq	.L8
 137              	.L11:
 138              		.loc 1 129 0
 139 0062 70BD     		pop	{r4, r5, r6, pc}
 140              	.L13:
 141              		.align	2
 142              	.L12:
 143 0064 00000000 		.word	.LANCHOR0
 144 0068 00000000 		.word	.LANCHOR1
 145 006c 00000000 		.word	.LC0
 146 0070 10000000 		.word	.LC1
 147              		.cfi_endproc
 148              	.LFE64:
 149              		.size	autoSelect, .-autoSelect
 150 0074 AFF30080 		.section	.text.braydonsDriveControl,"ax",%progbits
 150      AFF30080 
 150      AFF30080 
 151              		.align	2
 152              		.p2align 4,,15
 153              		.global	braydonsDriveControl
 154              		.thumb
 155              		.thumb_func
 156              		.type	braydonsDriveControl, %function
 157              	braydonsDriveControl:
 158              	.LFB65:
 159              		.loc 1 143 0
 160              		.cfi_startproc
 161              		@ args = 0, pretend = 0, frame = 0
 162              		@ frame_needed = 0, uses_anonymous_args = 0
 163              		.loc 1 144 0
 164 0000 0220     		movs	r0, #2
 165              		.loc 1 143 0
 166 0002 2DE9F84F 		push	{r3, r4, r5, r6, r7, r8, r9, sl, fp, lr}
 167              	.LCFI2:
 168              		.cfi_def_cfa_offset 40
 169              		.cfi_offset 3, -40
ARM GAS  C:\Users\GRACEK~1\AppData\Local\Temp\ccykIasE.s 			page 4


 170              		.cfi_offset 4, -36
 171              		.cfi_offset 5, -32
 172              		.cfi_offset 6, -28
 173              		.cfi_offset 7, -24
 174              		.cfi_offset 8, -20
 175              		.cfi_offset 9, -16
 176              		.cfi_offset 10, -12
 177              		.cfi_offset 11, -8
 178              		.cfi_offset 14, -4
 179              		.loc 1 144 0
 180 0006 FFF7FEFF 		bl	vexControllerGet
 181              	.LVL10:
 182 000a 0028     		cmp	r0, #0
 183 000c B8BF     		it	lt
 184 000e 4042     		rsblt	r0, r0, #0
 185 0010 0528     		cmp	r0, #5
 186 0012 48DC     		bgt	.L21
 187              		.loc 1 148 0
 188 0014 3F4F     		ldr	r7, .L24
 189              		.loc 1 149 0
 190 0016 404E     		ldr	r6, .L24+4
 191              		.loc 1 148 0
 192 0018 0023     		movs	r3, #0
 193 001a 3B60     		str	r3, [r7, #0]
 194              		.loc 1 149 0
 195 001c 3360     		str	r3, [r6, #0]
 196              	.L16:
 197              		.loc 1 151 0
 198 001e 0120     		movs	r0, #1
 199 0020 FFF7FEFF 		bl	vexControllerGet
 200              	.LVL11:
 201 0024 0028     		cmp	r0, #0
 202 0026 B8BF     		it	lt
 203 0028 4042     		rsblt	r0, r0, #0
 204 002a 0528     		cmp	r0, #5
 205 002c 46DC     		bgt	.L22
 206              		.loc 1 155 0
 207 002e 3B4D     		ldr	r5, .L24+8
 208              		.loc 1 156 0
 209 0030 3B4C     		ldr	r4, .L24+12
 210              		.loc 1 155 0
 211 0032 0023     		movs	r3, #0
 212 0034 2B60     		str	r3, [r5, #0]
 213              		.loc 1 156 0
 214 0036 2360     		str	r3, [r4, #0]
 215              	.L18:
 216              		.loc 1 158 0
 217 0038 0020     		movs	r0, #0
 218 003a FFF7FEFF 		bl	vexControllerGet
 219              	.LVL12:
 220 003e 0028     		cmp	r0, #0
 221 0040 B8BF     		it	lt
 222 0042 4042     		rsblt	r0, r0, #0
 223 0044 0528     		cmp	r0, #5
 224 0046 44DC     		bgt	.L23
 225              		.loc 1 165 0
 226 0048 DFF8DC80 		ldr	r8, .L24+20
ARM GAS  C:\Users\GRACEK~1\AppData\Local\Temp\ccykIasE.s 			page 5


 227              		.loc 1 166 0
 228 004c DFF8DCA0 		ldr	sl, .L24+24
 229              		.loc 1 167 0
 230 0050 DFF8DC90 		ldr	r9, .L24+28
 231              		.loc 1 164 0
 232 0054 334A     		ldr	r2, .L24+16
 233 0056 0023     		movs	r3, #0
 234 0058 1360     		str	r3, [r2, #0]
 235              		.loc 1 165 0
 236 005a C8F80030 		str	r3, [r8, #0]
 237              		.loc 1 166 0
 238 005e CAF80030 		str	r3, [sl, #0]
 239              		.loc 1 167 0
 240 0062 C9F80030 		str	r3, [r9, #0]
 241              	.L20:
 242              		.loc 1 170 0
 243 0066 3A68     		ldr	r2, [r7, #0]
 244 0068 0120     		movs	r0, #1
 245 006a 9918     		adds	r1, r3, r2
 246 006c 09B2     		sxth	r1, r1
 247 006e FFF7FEFF 		bl	vexMotorSet
 248              	.LVL13:
 249              		.loc 1 171 0
 250 0072 3368     		ldr	r3, [r6, #0]
 251 0074 D8F80010 		ldr	r1, [r8, #0]
 252 0078 0220     		movs	r0, #2
 253 007a C918     		adds	r1, r1, r3
 254 007c 09B2     		sxth	r1, r1
 255 007e FFF7FEFF 		bl	vexMotorSet
 256              	.LVL14:
 257              		.loc 1 172 0
 258 0082 2B68     		ldr	r3, [r5, #0]
 259 0084 DAF80010 		ldr	r1, [sl, #0]
 260 0088 0320     		movs	r0, #3
 261 008a C918     		adds	r1, r1, r3
 262 008c 09B2     		sxth	r1, r1
 263 008e FFF7FEFF 		bl	vexMotorSet
 264              	.LVL15:
 265              		.loc 1 173 0
 266 0092 D9F80010 		ldr	r1, [r9, #0]
 267 0096 2368     		ldr	r3, [r4, #0]
 268 0098 0420     		movs	r0, #4
 269 009a C918     		adds	r1, r1, r3
 270 009c 09B2     		sxth	r1, r1
 271              		.loc 1 175 0
 272 009e BDE8F84F 		pop	{r3, r4, r5, r6, r7, r8, r9, sl, fp, lr}
 273              		.loc 1 173 0
 274 00a2 FFF7FEBF 		b	vexMotorSet
 275              	.LVL16:
 276              	.L21:
 277              		.loc 1 145 0
 278 00a6 0220     		movs	r0, #2
 279 00a8 FFF7FEFF 		bl	vexControllerGet
 280              	.LVL17:
 281 00ac 194F     		ldr	r7, .L24
 282              		.loc 1 146 0
 283 00ae 1A4E     		ldr	r6, .L24+4
ARM GAS  C:\Users\GRACEK~1\AppData\Local\Temp\ccykIasE.s 			page 6


 284              		.loc 1 145 0
 285 00b0 3860     		str	r0, [r7, #0]
 286              		.loc 1 146 0
 287 00b2 0220     		movs	r0, #2
 288 00b4 FFF7FEFF 		bl	vexControllerGet
 289              	.LVL18:
 290 00b8 3060     		str	r0, [r6, #0]
 291 00ba B0E7     		b	.L16
 292              	.L22:
 293              		.loc 1 152 0
 294 00bc 0120     		movs	r0, #1
 295 00be FFF7FEFF 		bl	vexControllerGet
 296              	.LVL19:
 297 00c2 164D     		ldr	r5, .L24+8
 298              		.loc 1 153 0
 299 00c4 164C     		ldr	r4, .L24+12
 300              		.loc 1 152 0
 301 00c6 2860     		str	r0, [r5, #0]
 302              		.loc 1 153 0
 303 00c8 0120     		movs	r0, #1
 304 00ca FFF7FEFF 		bl	vexControllerGet
 305              	.LVL20:
 306 00ce 2060     		str	r0, [r4, #0]
 307 00d0 B2E7     		b	.L18
 308              	.L23:
 309              		.loc 1 159 0
 310 00d2 0020     		movs	r0, #0
 311 00d4 FFF7FEFF 		bl	vexControllerGet
 312              	.LVL21:
 313 00d8 DFF848B0 		ldr	fp, .L24+16
 314              		.loc 1 160 0
 315 00dc DFF84880 		ldr	r8, .L24+20
 316              		.loc 1 159 0
 317 00e0 CBF80000 		str	r0, [fp, #0]
 318              		.loc 1 160 0
 319 00e4 0020     		movs	r0, #0
 320 00e6 FFF7FEFF 		bl	vexControllerGet
 321              	.LVL22:
 322 00ea 4342     		negs	r3, r0
 323              		.loc 1 161 0
 324 00ec 0020     		movs	r0, #0
 325              		.loc 1 160 0
 326 00ee C8F80030 		str	r3, [r8, #0]
 327              		.loc 1 161 0
 328 00f2 FFF7FEFF 		bl	vexControllerGet
 329              	.LVL23:
 330 00f6 DFF834A0 		ldr	sl, .L24+24
 331 00fa 4342     		negs	r3, r0
 332              		.loc 1 162 0
 333 00fc 0020     		movs	r0, #0
 334              		.loc 1 161 0
 335 00fe CAF80030 		str	r3, [sl, #0]
 336              		.loc 1 162 0
 337 0102 FFF7FEFF 		bl	vexControllerGet
 338              	.LVL24:
 339 0106 DFF82890 		ldr	r9, .L24+28
 340 010a BBF80030 		ldrh	r3, [fp, #0]
ARM GAS  C:\Users\GRACEK~1\AppData\Local\Temp\ccykIasE.s 			page 7


 341 010e C9F80000 		str	r0, [r9, #0]
 342 0112 A8E7     		b	.L20
 343              	.L25:
 344              		.align	2
 345              	.L24:
 346 0114 00000000 		.word	.LANCHOR2
 347 0118 00000000 		.word	.LANCHOR3
 348 011c 00000000 		.word	.LANCHOR4
 349 0120 00000000 		.word	.LANCHOR5
 350 0124 00000000 		.word	.LANCHOR6
 351 0128 00000000 		.word	.LANCHOR7
 352 012c 00000000 		.word	.LANCHOR8
 353 0130 00000000 		.word	.LANCHOR9
 354              		.cfi_endproc
 355              	.LFE65:
 356              		.size	braydonsDriveControl, .-braydonsDriveControl
 357 0134 AFF30080 		.section	.text.dropCubeAuto,"ax",%progbits
 357      AFF30080 
 357      AFF30080 
 358              		.align	2
 359              		.p2align 4,,15
 360              		.global	dropCubeAuto
 361              		.thumb
 362              		.thumb_func
 363              		.type	dropCubeAuto, %function
 364              	dropCubeAuto:
 365              	.LFB66:
 366              		.loc 1 177 0
 367              		.cfi_startproc
 368              		@ args = 0, pretend = 0, frame = 0
 369              		@ frame_needed = 0, uses_anonymous_args = 0
 370 0000 08B5     		push	{r3, lr}
 371              	.LCFI3:
 372              		.cfi_def_cfa_offset 8
 373              		.cfi_offset 3, -8
 374              		.cfi_offset 14, -4
 375              		.loc 1 179 0
 376 0002 0520     		movs	r0, #5
 377 0004 7F21     		movs	r1, #127
 378 0006 FFF7FEFF 		bl	vexMotorSet
 379              	.LVL25:
 380              		.loc 1 180 0
 381 000a 0620     		movs	r0, #6
 382 000c 7F21     		movs	r1, #127
 383 000e FFF7FEFF 		bl	vexMotorSet
 384              	.LVL26:
 385              		.loc 1 181 0
 386 0012 0720     		movs	r0, #7
 387 0014 7F21     		movs	r1, #127
 388 0016 FFF7FEFF 		bl	vexMotorSet
 389              	.LVL27:
 390              		.loc 1 182 0
 391 001a 0820     		movs	r0, #8
 392 001c 7F21     		movs	r1, #127
 393 001e FFF7FEFF 		bl	vexMotorSet
 394              	.LVL28:
 395              		.loc 1 184 0
ARM GAS  C:\Users\GRACEK~1\AppData\Local\Temp\ccykIasE.s 			page 8


 396 0022 0120     		movs	r0, #1
 397 0024 7F21     		movs	r1, #127
 398 0026 FFF7FEFF 		bl	vexMotorSet
 399              	.LVL29:
 400              		.loc 1 185 0
 401 002a 0220     		movs	r0, #2
 402 002c 7F21     		movs	r1, #127
 403 002e FFF7FEFF 		bl	vexMotorSet
 404              	.LVL30:
 405              		.loc 1 186 0
 406 0032 0320     		movs	r0, #3
 407 0034 7F21     		movs	r1, #127
 408 0036 FFF7FEFF 		bl	vexMotorSet
 409              	.LVL31:
 410              		.loc 1 187 0
 411 003a 7F21     		movs	r1, #127
 412 003c 0420     		movs	r0, #4
 413 003e FFF7FEFF 		bl	vexMotorSet
 414              	.LVL32:
 415              		.loc 1 189 0
 416 0042 4FF47A70 		mov	r0, #1000
 417 0046 FFF7FEFF 		bl	vexSleep
 418              	.LVL33:
 419              		.loc 1 191 0
 420 004a FFF7FEFF 		bl	vexMotorStopAll
 421              	.LVL34:
 422              		.loc 1 193 0
 423 004e 0120     		movs	r0, #1
 424 0050 7F21     		movs	r1, #127
 425 0052 FFF7FEFF 		bl	vexMotorSet
 426              	.LVL35:
 427              		.loc 1 194 0
 428 0056 0220     		movs	r0, #2
 429 0058 7F21     		movs	r1, #127
 430 005a FFF7FEFF 		bl	vexMotorSet
 431              	.LVL36:
 432              		.loc 1 195 0
 433 005e 0320     		movs	r0, #3
 434 0060 7F21     		movs	r1, #127
 435 0062 FFF7FEFF 		bl	vexMotorSet
 436              	.LVL37:
 437              		.loc 1 196 0
 438 0066 0420     		movs	r0, #4
 439 0068 7F21     		movs	r1, #127
 440 006a FFF7FEFF 		bl	vexMotorSet
 441              	.LVL38:
 442              		.loc 1 198 0
 443 006e 4FF47A70 		mov	r0, #1000
 444 0072 FFF7FEFF 		bl	vexSleep
 445              	.LVL39:
 446              		.loc 1 202 0
 447 0076 BDE80840 		pop	{r3, lr}
 448              		.loc 1 200 0
 449 007a FFF7FEBF 		b	vexMotorStopAll
 450              	.LVL40:
 451              		.cfi_endproc
 452              	.LFE66:
ARM GAS  C:\Users\GRACEK~1\AppData\Local\Temp\ccykIasE.s 			page 9


 453              		.size	dropCubeAuto, .-dropCubeAuto
 454 007e 00BF     		.section	.text.vexUserSetup,"ax",%progbits
 455              		.align	2
 456              		.p2align 4,,15
 457              		.weak	vexUserSetup
 458              		.thumb
 459              		.thumb_func
 460              		.type	vexUserSetup, %function
 461              	vexUserSetup:
 462              	.LFB67:
 463              		.loc 1 210 0
 464              		.cfi_startproc
 465              		@ args = 0, pretend = 0, frame = 0
 466              		@ frame_needed = 0, uses_anonymous_args = 0
 467              		.loc 1 211 0
 468 0000 40F20000 		movw	r0, #:lower16:.LANCHOR10
 469 0004 0C21     		movs	r1, #12
 470              		.loc 1 210 0
 471 0006 08B5     		push	{r3, lr}
 472              	.LCFI4:
 473              		.cfi_def_cfa_offset 8
 474              		.cfi_offset 3, -8
 475              		.cfi_offset 14, -4
 476              		.loc 1 211 0
 477 0008 C0F20000 		movt	r0, #:upper16:.LANCHOR10
 478 000c FFF7FEFF 		bl	vexDigitalConfigure
 479              	.LVL41:
 480              		.loc 1 212 0
 481 0010 40F20000 		movw	r0, #:lower16:.LANCHOR11
 482 0014 C0F20000 		movt	r0, #:upper16:.LANCHOR11
 483 0018 0A21     		movs	r1, #10
 484              		.loc 1 213 0
 485 001a BDE80840 		pop	{r3, lr}
 486              		.loc 1 212 0
 487 001e FFF7FEBF 		b	vexMotorConfigure
 488              	.LVL42:
 489              		.cfi_endproc
 490              	.LFE67:
 491              		.size	vexUserSetup, .-vexUserSetup
 492 0022 00BFAFF3 		.section	.text.vexUserInit,"ax",%progbits
 492      0080AFF3 
 492      0080AFF3 
 492      0080
 493              		.align	2
 494              		.p2align 4,,15
 495              		.weak	vexUserInit
 496              		.thumb
 497              		.thumb_func
 498              		.type	vexUserInit, %function
 499              	vexUserInit:
 500              	.LFB68:
 501              		.loc 1 225 0
 502              		.cfi_startproc
 503              		@ args = 0, pretend = 0, frame = 0
 504              		@ frame_needed = 0, uses_anonymous_args = 0
 505              		@ link register save eliminated.
 506              		.loc 1 227 0
ARM GAS  C:\Users\GRACEK~1\AppData\Local\Temp\ccykIasE.s 			page 10


 507              		.loc 1 226 0
 508 0000 FFF7FEBF 		b	autoSelect
 509              	.LVL43:
 510              		.cfi_endproc
 511              	.LFE68:
 512              		.size	vexUserInit, .-vexUserInit
 513 0004 AFF30080 		.section	.text.vexAutonomous,"ax",%progbits
 513      AFF30080 
 513      AFF30080 
 514              		.align	2
 515              		.p2align 4,,15
 516              		.global	vexAutonomous
 517              		.thumb
 518              		.thumb_func
 519              		.type	vexAutonomous, %function
 520              	vexAutonomous:
 521              	.LFB69:
 522              		.loc 1 242 0
 523              		.cfi_startproc
 524              		@ args = 0, pretend = 0, frame = 0
 525              		@ frame_needed = 0, uses_anonymous_args = 0
 526              	.LVL44:
 527 0000 10B5     		push	{r4, lr}
 528              	.LCFI5:
 529              		.cfi_def_cfa_offset 8
 530              		.cfi_offset 4, -8
 531              		.cfi_offset 14, -4
 532              		.loc 1 246 0
 533 0002 0D48     		ldr	r0, .L45
 534              	.LVL45:
 535 0004 FFF7FEFF 		bl	vexTaskRegister
 536              	.LVL46:
 537              		.loc 1 248 0
 538 0008 0C4B     		ldr	r3, .L45+4
 539 000a 1B68     		ldr	r3, [r3, #0]
 540 000c 012B     		cmp	r3, #1
 541 000e 10D0     		beq	.L43
 542              		.loc 1 251 0
 543 0010 1920     		movs	r0, #25
 544 0012 FFF7FEFF 		bl	vexSleep
 545              	.LVL47:
 546              	.L31:
 547              		.loc 1 254 0 discriminator 1
 548 0016 0A4C     		ldr	r4, .L45+8
 549 0018 02E0     		b	.L42
 550              	.L44:
 551              		.loc 1 257 0
 552 001a 1920     		movs	r0, #25
 553 001c FFF7FEFF 		bl	vexSleep
 554              	.LVL48:
 555              	.L42:
 556              		.loc 1 254 0 discriminator 1
 557 0020 A369     		ldr	r3, [r4, #24]
 558 0022 5B7F     		ldrb	r3, [r3, #29]	@ zero_extendqisi2
 559 0024 03F00403 		and	r3, r3, #4
 560 0028 DBB2     		uxtb	r3, r3
 561 002a 002B     		cmp	r3, #0
ARM GAS  C:\Users\GRACEK~1\AppData\Local\Temp\ccykIasE.s 			page 11


 562 002c F5D0     		beq	.L44
 563              		.loc 1 261 0
 564 002e 0020     		movs	r0, #0
 565 0030 10BD     		pop	{r4, pc}
 566              	.L43:
 567              		.loc 1 249 0
 568 0032 FFF7FEFF 		bl	dropCubeAuto
 569              	.LVL49:
 570 0036 EEE7     		b	.L31
 571              	.L46:
 572              		.align	2
 573              	.L45:
 574 0038 20000000 		.word	.LC2
 575 003c 00000000 		.word	.LANCHOR1
 576 0040 00000000 		.word	rlist
 577              		.cfi_endproc
 578              	.LFE69:
 579              		.size	vexAutonomous, .-vexAutonomous
 580 0044 AFF30080 		.section	.text.vexOperator,"ax",%progbits
 580      AFF30080 
 580      AFF30080 
 581              		.align	2
 582              		.p2align 4,,15
 583              		.global	vexOperator
 584              		.thumb
 585              		.thumb_func
 586              		.type	vexOperator, %function
 587              	vexOperator:
 588              	.LFB70:
 589              		.loc 1 270 0
 590              		.cfi_startproc
 591              		@ args = 0, pretend = 0, frame = 0
 592              		@ frame_needed = 0, uses_anonymous_args = 0
 593              	.LVL50:
 594 0000 F8B5     		push	{r3, r4, r5, r6, r7, lr}
 595              	.LCFI6:
 596              		.cfi_def_cfa_offset 24
 597              		.cfi_offset 3, -24
 598              		.cfi_offset 4, -20
 599              		.cfi_offset 5, -16
 600              		.cfi_offset 6, -12
 601              		.cfi_offset 7, -8
 602              		.cfi_offset 14, -4
 603              		.loc 1 277 0
 604 0002 724D     		ldr	r5, .L88
 605              		.loc 1 274 0
 606 0004 7248     		ldr	r0, .L88+4
 607              	.LVL51:
 608 0006 FFF7FEFF 		bl	vexTaskRegister
 609              	.LVL52:
 610              		.loc 1 277 0
 611 000a AB69     		ldr	r3, [r5, #24]
 612 000c 5F7F     		ldrb	r7, [r3, #29]	@ zero_extendqisi2
 613 000e 07F00407 		and	r7, r7, #4
 614 0012 FFB2     		uxtb	r7, r7
 615 0014 002F     		cmp	r7, #0
 616 0016 40F09380 		bne	.L84
ARM GAS  C:\Users\GRACEK~1\AppData\Local\Temp\ccykIasE.s 			page 12


 617 001a 6E4C     		ldr	r4, .L88+8
 618 001c 6E4E     		ldr	r6, .L88+12
 619 001e 55E0     		b	.L48
 620              	.L49:
 621              		.loc 1 283 0
 622 0020 0E20     		movs	r0, #14
 623 0022 FFF7FEFF 		bl	vexControllerGet
 624              	.LVL53:
 625 0026 0128     		cmp	r0, #1
 626 0028 57D0     		beq	.L85
 627              		.loc 1 285 0
 628 002a 0620     		movs	r0, #6
 629 002c FFF7FEFF 		bl	vexControllerGet
 630              	.LVL54:
 631 0030 0128     		cmp	r0, #1
 632              		.loc 1 286 0
 633 0032 08BF     		it	eq
 634 0034 2060     		streq	r0, [r4, #0]
 635              		.loc 1 285 0
 636 0036 00F09180 		beq	.L53
 637              		.loc 1 287 0
 638 003a 0420     		movs	r0, #4
 639 003c FFF7FEFF 		bl	vexControllerGet
 640              	.LVL55:
 641 0040 0128     		cmp	r0, #1
 642              		.loc 1 288 0
 643 0042 04BF     		itt	eq
 644 0044 4FF0FF33 		moveq	r3, #-1
 645 0048 2360     		streq	r3, [r4, #0]
 646              		.loc 1 287 0
 647 004a 7BD0     		beq	.L55
 648              		.loc 1 291 0
 649 004c 2368     		ldr	r3, [r4, #0]
 650 004e 5A1C     		adds	r2, r3, #1
 651 0050 78D0     		beq	.L55
 652              		.loc 1 308 0
 653 0052 012B     		cmp	r3, #1
 654 0054 00F08280 		beq	.L53
 655              		.loc 1 313 0
 656 0058 002B     		cmp	r3, #0
 657 005a 3FD0     		beq	.L68
 658              	.L58:
 659              		.loc 1 332 0
 660 005c 0D20     		movs	r0, #13
 661 005e FFF7FEFF 		bl	vexControllerGet
 662              	.LVL56:
 663 0062 0128     		cmp	r0, #1
 664 0064 59D0     		beq	.L86
 665              	.L61:
 666              		.loc 1 335 0
 667 0066 0C20     		movs	r0, #12
 668 0068 FFF7FEFF 		bl	vexControllerGet
 669              	.LVL57:
 670 006c 0128     		cmp	r0, #1
 671              		.loc 1 336 0
 672 006e 4FF00900 		mov	r0, #9
 673              		.loc 1 335 0
ARM GAS  C:\Users\GRACEK~1\AppData\Local\Temp\ccykIasE.s 			page 13


 674 0072 5BD0     		beq	.L87
 675              		.loc 1 339 0
 676 0074 0021     		movs	r1, #0
 677 0076 FFF7FEFF 		bl	vexMotorSet
 678              	.LVL58:
 679              		.loc 1 340 0
 680 007a 0020     		movs	r0, #0
 681 007c 0146     		mov	r1, r0
 682 007e FFF7FEFF 		bl	vexMotorSet
 683              	.LVL59:
 684              	.L62:
 685              		.loc 1 343 0
 686 0082 0A20     		movs	r0, #10
 687 0084 FFF7FEFF 		bl	vexControllerGet
 688              	.LVL60:
 689 0088 0128     		cmp	r0, #1
 690              		.loc 1 344 0
 691 008a 04BF     		itt	eq
 692 008c 3060     		streq	r0, [r6, #0]
 693 008e 0146     		moveq	r1, r0
 694              		.loc 1 343 0
 695 0090 07D0     		beq	.L65
 696              		.loc 1 345 0
 697 0092 0820     		movs	r0, #8
 698 0094 FFF7FEFF 		bl	vexControllerGet
 699              	.LVL61:
 700 0098 0128     		cmp	r0, #1
 701 009a 12BF     		itee	ne
 702 009c 3178     		ldrbne	r1, [r6, #0]	@ zero_extendqisi2
 703              		.loc 1 346 0
 704 009e 3760     		streq	r7, [r6, #0]
 705 00a0 0021     		moveq	r1, #0
 706              	.L65:
 707              		.loc 1 348 0
 708 00a2 0B20     		movs	r0, #11
 709 00a4 FFF7FEFF 		bl	vexDigitalPinSet
 710              	.LVL62:
 711              		.loc 1 350 0
 712 00a8 0020     		movs	r0, #0
 713 00aa FFF7FEFF 		bl	vexImeGetCount
 714              	.LVL63:
 715 00ae 0346     		mov	r3, r0
 716 00b0 0020     		movs	r0, #0
 717 00b2 0146     		mov	r1, r0
 718 00b4 494A     		ldr	r2, .L88+16
 719 00b6 FFF7FEFF 		bl	vexLcdPrintf
 720              	.LVL64:
 721              		.loc 1 353 0
 722 00ba 1920     		movs	r0, #25
 723 00bc FFF7FEFF 		bl	vexSleep
 724              	.LVL65:
 725              		.loc 1 277 0
 726 00c0 AB69     		ldr	r3, [r5, #24]
 727 00c2 5B7F     		ldrb	r3, [r3, #29]	@ zero_extendqisi2
 728 00c4 03F00403 		and	r3, r3, #4
 729 00c8 DBB2     		uxtb	r3, r3
 730 00ca CBBB     		cbnz	r3, .L84
ARM GAS  C:\Users\GRACEK~1\AppData\Local\Temp\ccykIasE.s 			page 14


 731              	.L48:
 732              		.loc 1 279 0
 733 00cc FFF7FEFF 		bl	braydonsDriveControl
 734              	.LVL66:
 735              		.loc 1 281 0
 736 00d0 0F20     		movs	r0, #15
 737 00d2 FFF7FEFF 		bl	vexControllerGet
 738              	.LVL67:
 739 00d6 0128     		cmp	r0, #1
 740 00d8 A2D1     		bne	.L49
 741              	.L85:
 742              		.loc 1 284 0
 743 00da 2760     		str	r7, [r4, #0]
 744              	.L68:
 745              		.loc 1 314 0
 746 00dc 0F20     		movs	r0, #15
 747 00de FFF7FEFF 		bl	vexControllerGet
 748              	.LVL68:
 749 00e2 0128     		cmp	r0, #1
 750 00e4 60D0     		beq	.L59
 751              		.loc 1 319 0
 752 00e6 0E20     		movs	r0, #14
 753 00e8 FFF7FEFF 		bl	vexControllerGet
 754              	.LVL69:
 755 00ec 0128     		cmp	r0, #1
 756 00ee 46D0     		beq	.L60
 757              		.loc 1 325 0
 758 00f0 0520     		movs	r0, #5
 759 00f2 0021     		movs	r1, #0
 760 00f4 FFF7FEFF 		bl	vexMotorSet
 761              	.LVL70:
 762              		.loc 1 326 0
 763 00f8 0620     		movs	r0, #6
 764 00fa 0021     		movs	r1, #0
 765 00fc FFF7FEFF 		bl	vexMotorSet
 766              	.LVL71:
 767              		.loc 1 327 0
 768 0100 0720     		movs	r0, #7
 769 0102 0021     		movs	r1, #0
 770 0104 FFF7FEFF 		bl	vexMotorSet
 771              	.LVL72:
 772              		.loc 1 328 0
 773 0108 0820     		movs	r0, #8
 774 010a 0021     		movs	r1, #0
 775 010c FFF7FEFF 		bl	vexMotorSet
 776              	.LVL73:
 777              		.loc 1 332 0
 778 0110 0D20     		movs	r0, #13
 779 0112 FFF7FEFF 		bl	vexControllerGet
 780              	.LVL74:
 781 0116 0128     		cmp	r0, #1
 782 0118 A5D1     		bne	.L61
 783              	.L86:
 784              		.loc 1 333 0
 785 011a 0920     		movs	r0, #9
 786 011c 7F21     		movs	r1, #127
 787 011e FFF7FEFF 		bl	vexMotorSet
ARM GAS  C:\Users\GRACEK~1\AppData\Local\Temp\ccykIasE.s 			page 15


 788              	.LVL75:
 789              		.loc 1 334 0
 790 0122 0020     		movs	r0, #0
 791 0124 7F21     		movs	r1, #127
 792 0126 FFF7FEFF 		bl	vexMotorSet
 793              	.LVL76:
 794 012a AAE7     		b	.L62
 795              	.L87:
 796              		.loc 1 336 0
 797 012c 6FF07E01 		mvn	r1, #126
 798 0130 FFF7FEFF 		bl	vexMotorSet
 799              	.LVL77:
 800              		.loc 1 337 0
 801 0134 0020     		movs	r0, #0
 802 0136 6FF07E01 		mvn	r1, #126
 803 013a FFF7FEFF 		bl	vexMotorSet
 804              	.LVL78:
 805 013e A0E7     		b	.L62
 806              	.L84:
 807              		.loc 1 357 0
 808 0140 0020     		movs	r0, #0
 809 0142 F8BD     		pop	{r3, r4, r5, r6, r7, pc}
 810              	.L55:
 811              		.loc 1 292 0
 812 0144 0020     		movs	r0, #0
 813 0146 FFF7FEFF 		bl	vexImeGetCount
 814              	.LVL79:
 815 014a 4042     		negs	r0, r0
 816 014c B328     		cmp	r0, #179
 817 014e 2BDD     		ble	.L59
 818              		.loc 1 297 0
 819 0150 0020     		movs	r0, #0
 820 0152 FFF7FEFF 		bl	vexImeGetCount
 821              	.LVL80:
 822 0156 4042     		negs	r0, r0
 823 0158 DC28     		cmp	r0, #220
 824 015a 10DC     		bgt	.L60
 825              	.L53:
 826              		.loc 1 303 0
 827 015c 0520     		movs	r0, #5
 828 015e 0A21     		movs	r1, #10
 829 0160 FFF7FEFF 		bl	vexMotorSet
 830              	.LVL81:
 831              		.loc 1 304 0
 832 0164 0620     		movs	r0, #6
 833 0166 0A21     		movs	r1, #10
 834 0168 FFF7FEFF 		bl	vexMotorSet
 835              	.LVL82:
 836              		.loc 1 305 0
 837 016c 0720     		movs	r0, #7
 838 016e 0A21     		movs	r1, #10
 839 0170 FFF7FEFF 		bl	vexMotorSet
 840              	.LVL83:
 841              		.loc 1 306 0
 842 0174 0820     		movs	r0, #8
 843 0176 0A21     		movs	r1, #10
 844 0178 FFF7FEFF 		bl	vexMotorSet
ARM GAS  C:\Users\GRACEK~1\AppData\Local\Temp\ccykIasE.s 			page 16


 845              	.LVL84:
 846 017c 6EE7     		b	.L58
 847              	.L60:
 848              		.loc 1 298 0
 849 017e 0520     		movs	r0, #5
 850 0180 6FF07E01 		mvn	r1, #126
 851 0184 FFF7FEFF 		bl	vexMotorSet
 852              	.LVL85:
 853              		.loc 1 299 0
 854 0188 0620     		movs	r0, #6
 855 018a 6FF07E01 		mvn	r1, #126
 856 018e FFF7FEFF 		bl	vexMotorSet
 857              	.LVL86:
 858              		.loc 1 300 0
 859 0192 0720     		movs	r0, #7
 860 0194 6FF07E01 		mvn	r1, #126
 861 0198 FFF7FEFF 		bl	vexMotorSet
 862              	.LVL87:
 863              		.loc 1 301 0
 864 019c 0820     		movs	r0, #8
 865 019e 6FF07E01 		mvn	r1, #126
 866 01a2 FFF7FEFF 		bl	vexMotorSet
 867              	.LVL88:
 868 01a6 59E7     		b	.L58
 869              	.L59:
 870              		.loc 1 293 0
 871 01a8 0520     		movs	r0, #5
 872 01aa 7F21     		movs	r1, #127
 873 01ac FFF7FEFF 		bl	vexMotorSet
 874              	.LVL89:
 875              		.loc 1 294 0
 876 01b0 0620     		movs	r0, #6
 877 01b2 7F21     		movs	r1, #127
 878 01b4 FFF7FEFF 		bl	vexMotorSet
 879              	.LVL90:
 880              		.loc 1 295 0
 881 01b8 0720     		movs	r0, #7
 882 01ba 7F21     		movs	r1, #127
 883 01bc FFF7FEFF 		bl	vexMotorSet
 884              	.LVL91:
 885              		.loc 1 296 0
 886 01c0 0820     		movs	r0, #8
 887 01c2 7F21     		movs	r1, #127
 888 01c4 FFF7FEFF 		bl	vexMotorSet
 889              	.LVL92:
 890 01c8 48E7     		b	.L58
 891              	.L89:
 892 01ca 00BF     		.align	2
 893              	.L88:
 894 01cc 00000000 		.word	rlist
 895 01d0 28000000 		.word	.LC3
 896 01d4 00000000 		.word	.LANCHOR12
 897 01d8 00000000 		.word	.LANCHOR13
 898 01dc 34000000 		.word	.LC4
 899              		.cfi_endproc
 900              	.LFE70:
 901              		.size	vexOperator, .-vexOperator
ARM GAS  C:\Users\GRACEK~1\AppData\Local\Temp\ccykIasE.s 			page 17


 902              		.global	dT
 903              		.global	Kd
 904              		.global	Ki
 905              		.global	Kp
 906              		.global	derivative
 907              		.global	integral
 908              		.global	speed
 909              		.global	previousError
 910              		.global	target
 911              		.global	error
 912              		.global	strafeCommandRR
 913              		.global	strafeCommandRF
 914              		.global	strafeCommandLR
 915              		.global	strafeCommandLF
 916              		.global	tankCommandRR
 917              		.global	tankCommandRF
 918              		.global	tankCommandLR
 919              		.global	tankCommandLF
 920              		.global	driveCommandRR
 921              		.global	driveCommandRF
 922              		.global	driveCommandLR
 923              		.global	driveCommandLF
 924              		.global	claw
 925              		.global	preset
 926              		.global	pageHolder
 927              		.global	autonomousMode
 928              		.global	PAGE_MAX
 929              		.global	page
 930              		.global	button
 931              		.global	isHeld
 932              		.section	.data.PAGE_MAX,"aw",%progbits
 933              		.align	2
 934              		.type	PAGE_MAX, %object
 935              		.size	PAGE_MAX, 4
 936              	PAGE_MAX:
 937 0000 08000000 		.word	8
 938              		.section	.bss.claw,"aw",%nobits
 939              		.align	2
 940              		.set	.LANCHOR13,. + 0
 941              		.type	claw, %object
 942              		.size	claw, 4
 943              	claw:
 944 0000 00000000 		.space	4
 945              		.section	.bss.tankCommandLF,"aw",%nobits
 946              		.align	2
 947              		.set	.LANCHOR2,. + 0
 948              		.type	tankCommandLF, %object
 949              		.size	tankCommandLF, 4
 950              	tankCommandLF:
 951 0000 00000000 		.space	4
 952              		.section	.bss.strafeCommandLR,"aw",%nobits
 953              		.align	2
 954              		.set	.LANCHOR7,. + 0
 955              		.type	strafeCommandLR, %object
 956              		.size	strafeCommandLR, 4
 957              	strafeCommandLR:
 958 0000 00000000 		.space	4
ARM GAS  C:\Users\GRACEK~1\AppData\Local\Temp\ccykIasE.s 			page 18


 959              		.section	.bss.target,"aw",%nobits
 960              		.align	2
 961              		.type	target, %object
 962              		.size	target, 4
 963              	target:
 964 0000 00000000 		.space	4
 965              		.section	.data.Kp,"aw",%progbits
 966              		.align	2
 967              		.type	Kp, %object
 968              		.size	Kp, 4
 969              	Kp:
 970 0000 8FC2F53D 		.word	1039516303
 971              		.section	.bss.autonomousMode,"aw",%nobits
 972              		.align	2
 973              		.set	.LANCHOR1,. + 0
 974              		.type	autonomousMode, %object
 975              		.size	autonomousMode, 4
 976              	autonomousMode:
 977 0000 00000000 		.space	4
 978              		.section	.data.Kd,"aw",%progbits
 979              		.align	2
 980              		.type	Kd, %object
 981              		.size	Kd, 4
 982              	Kd:
 983 0000 3333333F 		.word	1060320051
 984              		.section	.bss.tankCommandLR,"aw",%nobits
 985              		.align	2
 986              		.set	.LANCHOR3,. + 0
 987              		.type	tankCommandLR, %object
 988              		.size	tankCommandLR, 4
 989              	tankCommandLR:
 990 0000 00000000 		.space	4
 991              		.section	.bss.derivative,"aw",%nobits
 992              		.align	2
 993              		.type	derivative, %object
 994              		.size	derivative, 4
 995              	derivative:
 996 0000 00000000 		.space	4
 997              		.section	.data.Ki,"aw",%progbits
 998              		.align	2
 999              		.type	Ki, %object
 1000              		.size	Ki, 4
 1001              	Ki:
 1002 0000 6F12033B 		.word	990057071
 1003              		.section	.data.mConfig,"aw",%progbits
 1004              		.align	2
 1005              		.set	.LANCHOR11,. + 0
 1006              		.type	mConfig, %object
 1007              		.size	mConfig, 60
 1008              	mConfig:
 1009 0000 00       		.byte	0
 1010 0001 02       		.byte	2
 1011 0002 01       		.byte	1
 1012 0003 00       		.byte	0
 1013 0004 0000     		.short	0
 1014 0006 01       		.byte	1
 1015 0007 03       		.byte	3
ARM GAS  C:\Users\GRACEK~1\AppData\Local\Temp\ccykIasE.s 			page 19


 1016 0008 00       		.byte	0
 1017 0009 00       		.byte	0
 1018 000a 0000     		.short	0
 1019 000c 02       		.byte	2
 1020 000d 03       		.byte	3
 1021 000e 00       		.byte	0
 1022 000f 00       		.byte	0
 1023 0010 0000     		.short	0
 1024 0012 03       		.byte	3
 1025 0013 03       		.byte	3
 1026 0014 01       		.byte	1
 1027 0015 00       		.byte	0
 1028 0016 0000     		.short	0
 1029 0018 04       		.byte	4
 1030 0019 03       		.byte	3
 1031 001a 01       		.byte	1
 1032 001b 00       		.byte	0
 1033 001c 0000     		.short	0
 1034 001e 05       		.byte	5
 1035 001f 02       		.byte	2
 1036 0020 00       		.byte	0
 1037 0021 00       		.byte	0
 1038 0022 0000     		.short	0
 1039 0024 06       		.byte	6
 1040 0025 02       		.byte	2
 1041 0026 01       		.byte	1
 1042 0027 00       		.byte	0
 1043 0028 0000     		.short	0
 1044 002a 07       		.byte	7
 1045 002b 03       		.byte	3
 1046 002c 01       		.byte	1
 1047 002d 03       		.byte	3
 1048 002e 0000     		.short	0
 1049 0030 08       		.byte	8
 1050 0031 03       		.byte	3
 1051 0032 00       		.byte	0
 1052 0033 06       		.byte	6
 1053 0034 0000     		.short	0
 1054 0036 09       		.byte	9
 1055 0037 02       		.byte	2
 1056 0038 00       		.byte	0
 1057 0039 00       		.byte	0
 1058 003a 0000     		.short	0
 1059              		.section	.bss.driveCommandRR,"aw",%nobits
 1060              		.align	2
 1061              		.type	driveCommandRR, %object
 1062              		.size	driveCommandRR, 4
 1063              	driveCommandRR:
 1064 0000 00000000 		.space	4
 1065              		.section	.bss.preset,"aw",%nobits
 1066              		.align	2
 1067              		.set	.LANCHOR12,. + 0
 1068              		.type	preset, %object
 1069              		.size	preset, 4
 1070              	preset:
 1071 0000 00000000 		.space	4
 1072              		.section	.data.dT,"aw",%progbits
ARM GAS  C:\Users\GRACEK~1\AppData\Local\Temp\ccykIasE.s 			page 20


 1073              		.align	2
 1074              		.type	dT, %object
 1075              		.size	dT, 4
 1076              	dT:
 1077 0000 0000803F 		.word	1065353216
 1078              		.section	.bss.previousError,"aw",%nobits
 1079              		.align	2
 1080              		.type	previousError, %object
 1081              		.size	previousError, 4
 1082              	previousError:
 1083 0000 00000000 		.space	4
 1084              		.section	.bss.strafeCommandRF,"aw",%nobits
 1085              		.align	2
 1086              		.set	.LANCHOR8,. + 0
 1087              		.type	strafeCommandRF, %object
 1088              		.size	strafeCommandRF, 4
 1089              	strafeCommandRF:
 1090 0000 00000000 		.space	4
 1091              		.section	.rodata.str1.4,"aMS",%progbits,1
 1092              		.align	2
 1093              	.LC0:
 1094 0000 20202020 		.ascii	"    Autonomous?\000"
 1094      4175746F 
 1094      6E6F6D6F 
 1094      75733F00 
 1095              	.LC1:
 1096 0010 59657320 		.ascii	"Yes       No\000"
 1096      20202020 
 1096      20204E6F 
 1096      00
 1097 001d 000000   		.space	3
 1098              	.LC2:
 1099 0020 6175746F 		.ascii	"auton\000"
 1099      6E00
 1100 0026 0000     		.space	2
 1101              	.LC3:
 1102 0028 6F706572 		.ascii	"operator\000"
 1102      61746F72 
 1102      00
 1103 0031 000000   		.space	3
 1104              	.LC4:
 1105 0034 256400   		.ascii	"%d\000"
 1106 0037 00       		.section	.data.dConfig,"aw",%progbits
 1107              		.align	2
 1108              		.set	.LANCHOR10,. + 0
 1109              		.type	dConfig, %object
 1110              		.size	dConfig, 72
 1111              	dConfig:
 1112 0000 00       		.byte	0
 1113 0001 01       		.byte	1
 1114 0002 00       		.byte	0
 1115 0003 00       		.space	1
 1116 0004 0000     		.short	0
 1117 0006 01       		.byte	1
 1118 0007 01       		.byte	1
 1119 0008 00       		.byte	0
 1120 0009 00       		.space	1
ARM GAS  C:\Users\GRACEK~1\AppData\Local\Temp\ccykIasE.s 			page 21


 1121 000a 0000     		.short	0
 1122 000c 02       		.byte	2
 1123 000d 01       		.byte	1
 1124 000e 00       		.byte	0
 1125 000f 00       		.space	1
 1126 0010 0000     		.short	0
 1127 0012 03       		.byte	3
 1128 0013 01       		.byte	1
 1129 0014 00       		.byte	0
 1130 0015 00       		.space	1
 1131 0016 0000     		.short	0
 1132 0018 04       		.byte	4
 1133 0019 01       		.byte	1
 1134 001a 0A       		.byte	10
 1135 001b 00       		.space	1
 1136 001c 0000     		.short	0
 1137 001e 05       		.byte	5
 1138 001f 01       		.byte	1
 1139 0020 0B       		.byte	11
 1140 0021 00       		.space	1
 1141 0022 0000     		.short	0
 1142 0024 06       		.byte	6
 1143 0025 01       		.byte	1
 1144 0026 00       		.byte	0
 1145 0027 00       		.space	1
 1146 0028 0000     		.short	0
 1147 002a 07       		.byte	7
 1148 002b 01       		.byte	1
 1149 002c 00       		.byte	0
 1150 002d 00       		.space	1
 1151 002e 0000     		.short	0
 1152 0030 08       		.byte	8
 1153 0031 02       		.byte	2
 1154 0032 01       		.byte	1
 1155 0033 00       		.space	1
 1156 0034 0000     		.short	0
 1157 0036 09       		.byte	9
 1158 0037 02       		.byte	2
 1159 0038 01       		.byte	1
 1160 0039 00       		.space	1
 1161 003a 0000     		.short	0
 1162 003c 0A       		.byte	10
 1163 003d 02       		.byte	2
 1164 003e 01       		.byte	1
 1165 003f 00       		.space	1
 1166 0040 0000     		.short	0
 1167 0042 0B       		.byte	11
 1168 0043 02       		.byte	2
 1169 0044 01       		.byte	1
 1170 0045 00       		.space	1
 1171 0046 0000     		.short	0
 1172              		.section	.bss.driveCommandLF,"aw",%nobits
 1173              		.align	2
 1174              		.type	driveCommandLF, %object
 1175              		.size	driveCommandLF, 4
 1176              	driveCommandLF:
 1177 0000 00000000 		.space	4
ARM GAS  C:\Users\GRACEK~1\AppData\Local\Temp\ccykIasE.s 			page 22


 1178              		.section	.bss.pageHolder,"aw",%nobits
 1179              		.align	2
 1180              		.type	pageHolder, %object
 1181              		.size	pageHolder, 4
 1182              	pageHolder:
 1183 0000 00000000 		.space	4
 1184              		.section	.bss.isHeld,"aw",%nobits
 1185              		.align	2
 1186              		.type	isHeld, %object
 1187              		.size	isHeld, 4
 1188              	isHeld:
 1189 0000 00000000 		.space	4
 1190              		.section	.bss.tankCommandRF,"aw",%nobits
 1191              		.align	2
 1192              		.set	.LANCHOR4,. + 0
 1193              		.type	tankCommandRF, %object
 1194              		.size	tankCommandRF, 4
 1195              	tankCommandRF:
 1196 0000 00000000 		.space	4
 1197              		.section	.bss.strafeCommandRR,"aw",%nobits
 1198              		.align	2
 1199              		.set	.LANCHOR9,. + 0
 1200              		.type	strafeCommandRR, %object
 1201              		.size	strafeCommandRR, 4
 1202              	strafeCommandRR:
 1203 0000 00000000 		.space	4
 1204              		.section	.bss.button,"aw",%nobits
 1205              		.align	2
 1206              		.set	.LANCHOR0,. + 0
 1207              		.type	button, %object
 1208              		.size	button, 4
 1209              	button:
 1210 0000 00000000 		.space	4
 1211              		.section	.bss.driveCommandRF,"aw",%nobits
 1212              		.align	2
 1213              		.type	driveCommandRF, %object
 1214              		.size	driveCommandRF, 4
 1215              	driveCommandRF:
 1216 0000 00000000 		.space	4
 1217              		.section	.bss.driveCommandLR,"aw",%nobits
 1218              		.align	2
 1219              		.type	driveCommandLR, %object
 1220              		.size	driveCommandLR, 4
 1221              	driveCommandLR:
 1222 0000 00000000 		.space	4
 1223              		.section	.bss.integral,"aw",%nobits
 1224              		.align	2
 1225              		.type	integral, %object
 1226              		.size	integral, 4
 1227              	integral:
 1228 0000 00000000 		.space	4
 1229              		.section	.bss.tankCommandRR,"aw",%nobits
 1230              		.align	2
 1231              		.set	.LANCHOR5,. + 0
 1232              		.type	tankCommandRR, %object
 1233              		.size	tankCommandRR, 4
 1234              	tankCommandRR:
ARM GAS  C:\Users\GRACEK~1\AppData\Local\Temp\ccykIasE.s 			page 23


 1235 0000 00000000 		.space	4
 1236              		.section	.bss.page,"aw",%nobits
 1237              		.align	2
 1238              		.type	page, %object
 1239              		.size	page, 4
 1240              	page:
 1241 0000 00000000 		.space	4
 1242              		.section	.bss.strafeCommandLF,"aw",%nobits
 1243              		.align	2
 1244              		.set	.LANCHOR6,. + 0
 1245              		.type	strafeCommandLF, %object
 1246              		.size	strafeCommandLF, 4
 1247              	strafeCommandLF:
 1248 0000 00000000 		.space	4
 1249              		.section	.bss.error,"aw",%nobits
 1250              		.align	2
 1251              		.type	error, %object
 1252              		.size	error, 4
 1253              	error:
 1254 0000 00000000 		.space	4
 1255              		.section	.bss.speed,"aw",%nobits
 1256              		.align	2
 1257              		.type	speed, %object
 1258              		.size	speed, 4
 1259              	speed:
 1260 0000 00000000 		.space	4
 1261              		.text
 1262              	.Letext0:
 1263              		.file 2 "c:/yagarto-20121222/lib/gcc/../../arm-none-eabi/sys-include/stdint.h"
 1264              		.file 3 "../ChibiOS_2.6.0/os/ports/GCC/ARMCMx/chtypes.h"
 1265              		.file 4 "../ChibiOS_2.6.0/os/kernel/include/chlists.h"
 1266              		.file 5 "../ChibiOS_2.6.0/os/kernel/include/chthreads.h"
 1267              		.file 6 "../ChibiOS_2.6.0/os/ports/GCC/ARMCMx/chcore_v7m.h"
 1268              		.file 7 "../ChibiOS_2.6.0/os/kernel/include/chschd.h"
 1269              		.file 8 "../ChibiOS_2.6.0/os/kernel/include/chmtx.h"
 1270              		.file 9 "../convex/cortex/fw/vexdigital.h"
 1271              		.file 10 "../convex/cortex/fw/vexencoder.h"
 1272              		.file 11 "../convex/cortex/fw/vexmotor.h"
 1273              		.file 12 "../convex/cortex/fw/vexime.h"
 1274              		.file 13 "../convex/cortex/fw/vexconfig.h"
 1275              		.file 14 "../convex/cortex/fw/vexlcd.h"
 1276              		.file 15 "../convex/cortex/fw/vexctl.h"
 1277              		.file 16 "../ChibiOS_2.6.0/os/ports/common/ARMCMx/CMSIS/include/core_cm3.h"
 1278              		.file 17 "../convex/cortex/fw/vex.h"