ARM GAS  C:\Users\Caitlin\AppData\Local\Temp\ccI5qf4i.s 			page 1


   1              		.syntax unified
   2              		.cpu cortex-m3
   3              		.fpu softvfp
   4              		.eabi_attribute 20, 1
   5              		.eabi_attribute 21, 1
   6              		.eabi_attribute 23, 3
   7              		.eabi_attribute 24, 1
   8              		.eabi_attribute 25, 1
   9              		.eabi_attribute 26, 1
  10              		.eabi_attribute 30, 2
  11              		.eabi_attribute 34, 1
  12              		.eabi_attribute 18, 4
  13              		.thumb
  14              		.file	"vexuser.c"
  15              		.text
  16              	.Ltext0:
  17              		.cfi_sections	.debug_frame
  18              		.section	.text.vexUserSetup,"ax",%progbits
  19              		.align	2
  20              		.p2align 4,,15
  21              		.weak	vexUserSetup
  22              		.thumb
  23              		.thumb_func
  24              		.type	vexUserSetup, %function
  25              	vexUserSetup:
  26              	.LFB63:
  27              		.file 1 "vexuser.c"
  28              		.loc 1 87 0
  29              		.cfi_startproc
  30              		@ args = 0, pretend = 0, frame = 0
  31              		@ frame_needed = 0, uses_anonymous_args = 0
  32              		.loc 1 88 0
  33 0000 40F20000 		movw	r0, #:lower16:.LANCHOR0
  34 0004 0C21     		movs	r1, #12
  35              		.loc 1 87 0
  36 0006 08B5     		push	{r3, lr}
  37              	.LCFI0:
  38              		.cfi_def_cfa_offset 8
  39              		.cfi_offset 3, -8
  40              		.cfi_offset 14, -4
  41              		.loc 1 88 0
  42 0008 C0F20000 		movt	r0, #:upper16:.LANCHOR0
  43 000c FFF7FEFF 		bl	vexDigitalConfigure
  44              	.LVL0:
  45              		.loc 1 89 0
  46 0010 40F20000 		movw	r0, #:lower16:.LANCHOR1
  47 0014 C0F20000 		movt	r0, #:upper16:.LANCHOR1
  48 0018 0A21     		movs	r1, #10
  49              		.loc 1 90 0
  50 001a BDE80840 		pop	{r3, lr}
  51              		.loc 1 89 0
  52 001e FFF7FEBF 		b	vexMotorConfigure
  53              	.LVL1:
  54              		.cfi_endproc
  55              	.LFE63:
  56              		.size	vexUserSetup, .-vexUserSetup
  57 0022 00BFAFF3 		.section	.text.vexUserInit,"ax",%progbits
ARM GAS  C:\Users\Caitlin\AppData\Local\Temp\ccI5qf4i.s 			page 2


  57      0080AFF3 
  57      0080AFF3 
  57      0080
  58              		.align	2
  59              		.p2align 4,,15
  60              		.weak	vexUserInit
  61              		.thumb
  62              		.thumb_func
  63              		.type	vexUserInit, %function
  64              	vexUserInit:
  65              	.LFB64:
  66              		.loc 1 102 0
  67              		.cfi_startproc
  68              		@ args = 0, pretend = 0, frame = 0
  69              		@ frame_needed = 0, uses_anonymous_args = 0
  70              		@ link register save eliminated.
  71 0000 7047     		bx	lr
  72              		.cfi_endproc
  73              	.LFE64:
  74              		.size	vexUserInit, .-vexUserInit
  75 0002 00BFAFF3 		.section	.text.vexAutonomous,"ax",%progbits
  75      0080AFF3 
  75      0080AFF3 
  75      0080
  76              		.align	2
  77              		.p2align 4,,15
  78              		.global	vexAutonomous
  79              		.thumb
  80              		.thumb_func
  81              		.type	vexAutonomous, %function
  82              	vexAutonomous:
  83              	.LFB65:
  84              		.loc 1 114 0
  85              		.cfi_startproc
  86              		@ Volatile: function does not return.
  87              		@ args = 0, pretend = 0, frame = 0
  88              		@ frame_needed = 0, uses_anonymous_args = 0
  89              	.LVL2:
  90              		.loc 1 114 0
  91 0000 08B5     		push	{r3, lr}
  92              	.LCFI1:
  93              		.cfi_def_cfa_offset 8
  94              		.cfi_offset 3, -8
  95              		.cfi_offset 14, -4
  96              		.loc 1 118 0
  97 0002 0348     		ldr	r0, .L6
  98              	.LVL3:
  99 0004 FFF7FEFF 		bl	vexTaskRegister
 100              	.LVL4:
 101              	.L4:
 102              		.loc 1 123 0 discriminator 1
 103 0008 1920     		movs	r0, #25
 104 000a FFF7FEFF 		bl	vexSleep
 105              	.LVL5:
 106 000e FBE7     		b	.L4
 107              	.L7:
 108              		.align	2
ARM GAS  C:\Users\Caitlin\AppData\Local\Temp\ccI5qf4i.s 			page 3


 109              	.L6:
 110 0010 00000000 		.word	.LC0
 111              		.cfi_endproc
 112              	.LFE65:
 113              		.size	vexAutonomous, .-vexAutonomous
 114              		.global	__aeabi_i2d
 115              		.global	__aeabi_ddiv
 116              		.global	__aeabi_ui2d
 117 0014 AFF30080 		.section	.text.vexOperator,"ax",%progbits
 117      AFF30080 
 117      AFF30080 
 118              		.align	2
 119              		.p2align 4,,15
 120              		.global	vexOperator
 121              		.thumb
 122              		.thumb_func
 123              		.type	vexOperator, %function
 124              	vexOperator:
 125              	.LFB66:
 126              		.loc 1 140 0
 127              		.cfi_startproc
 128              		@ args = 0, pretend = 0, frame = 0
 129              		@ frame_needed = 0, uses_anonymous_args = 0
 130              	.LVL6:
 131 0000 F0B5     		push	{r4, r5, r6, r7, lr}
 132              	.LCFI2:
 133              		.cfi_def_cfa_offset 20
 134              		.cfi_offset 4, -20
 135              		.cfi_offset 5, -16
 136              		.cfi_offset 6, -12
 137              		.cfi_offset 7, -8
 138              		.cfi_offset 14, -4
 139              		.loc 1 149 0
 140 0002 2E4F     		ldr	r7, .L17
 141              		.loc 1 140 0
 142 0004 85B0     		sub	sp, sp, #20
 143              	.LCFI3:
 144              		.cfi_def_cfa_offset 40
 145              		.loc 1 146 0
 146 0006 2E48     		ldr	r0, .L17+4
 147              	.LVL7:
 148 0008 FFF7FEFF 		bl	vexTaskRegister
 149              	.LVL8:
 150              		.loc 1 149 0
 151 000c BB69     		ldr	r3, [r7, #24]
 152 000e 5C7F     		ldrb	r4, [r3, #29]	@ zero_extendqisi2
 153 0010 04F00404 		and	r4, r4, #4
 154 0014 E4B2     		uxtb	r4, r4
 155 0016 002C     		cmp	r4, #0
 156 0018 4CD1     		bne	.L16
 157 001a 2A4E     		ldr	r6, .L17+8
 158              	.LVL9:
 159              	.L9:
 160              		.loc 1 152 0
 161 001c C4F3C001 		ubfx	r1, r4, #3, #1
 162 0020 0020     		movs	r0, #0
 163 0022 FFF7FEFF 		bl	vexDigitalPinSet
ARM GAS  C:\Users\Caitlin\AppData\Local\Temp\ccI5qf4i.s 			page 4


 164              	.LVL10:
 165              		.loc 1 155 0
 166 0026 FFF7FEFF 		bl	vexSpiGetMainBattery
 167              	.LVL11:
 168 002a FFF7FEFF 		bl	__aeabi_i2d
 169              	.LVL12:
 170 002e 4FF48043 		mov	r3, #16384
 171 0032 0022     		movs	r2, #0
 172 0034 C4F28F03 		movt	r3, 16527
 173 0038 FFF7FEFF 		bl	__aeabi_ddiv
 174              	.LVL13:
 175 003c F368     		ldr	r3, [r6, #12]
 176 003e CDE90001 		strd	r0, [sp]
 177 0042 1846     		mov	r0, r3
 178 0044 FFF7FEFF 		bl	__aeabi_ui2d
 179              	.LVL14:
 180 0048 4FF48043 		mov	r3, #16384
 181 004c C4F28F03 		movt	r3, 16527
 182 0050 0022     		movs	r2, #0
 183 0052 FFF7FEFF 		bl	__aeabi_ddiv
 184              	.LVL15:
 185 0056 1C4A     		ldr	r2, .L17+12
 186 0058 CDE90201 		strd	r0, [sp, #8]
 187 005c 0021     		movs	r1, #0
 188 005e 0120     		movs	r0, #1
 189 0060 FFF7FEFF 		bl	vexLcdPrintf
 190              	.LVL16:
 191              		.loc 1 156 0
 192 0064 0020     		movs	r0, #0
 193 0066 FFF7FEFF 		bl	vexMotorGet
 194              	.LVL17:
 195 006a 0546     		mov	r5, r0
 196 006c 0920     		movs	r0, #9
 197 006e FFF7FEFF 		bl	vexMotorGet
 198              	.LVL18:
 199 0072 0090     		str	r0, [sp, #0]
 200 0074 0120     		movs	r0, #1
 201 0076 2B46     		mov	r3, r5
 202 0078 144A     		ldr	r2, .L17+16
 203 007a 0146     		mov	r1, r0
 204 007c FFF7FEFF 		bl	vexLcdPrintf
 205              	.LVL19:
 206              		.loc 1 160 0
 207 0080 0220     		movs	r0, #2
 208 0082 FFF7FEFF 		bl	vexControllerGet
 209              	.LVL20:
 210 0086 0146     		mov	r1, r0
 211 0088 0020     		movs	r0, #0
 212 008a FFF7FEFF 		bl	vexMotorSet
 213              	.LVL21:
 214              		.loc 1 163 0
 215 008e 0120     		movs	r0, #1
 216 0090 FFF7FEFF 		bl	vexControllerGet
 217              	.LVL22:
 218 0094 0146     		mov	r1, r0
 219 0096 0920     		movs	r0, #9
 220 0098 FFF7FEFF 		bl	vexMotorSet
ARM GAS  C:\Users\Caitlin\AppData\Local\Temp\ccI5qf4i.s 			page 5


 221              	.LVL23:
 222              		.loc 1 166 0
 223 009c 1920     		movs	r0, #25
 224 009e FFF7FEFF 		bl	vexSleep
 225              	.LVL24:
 226              		.loc 1 149 0
 227 00a2 BB69     		ldr	r3, [r7, #24]
 228              		.loc 1 152 0
 229 00a4 0134     		adds	r4, r4, #1
 230              		.loc 1 149 0
 231 00a6 5B7F     		ldrb	r3, [r3, #29]	@ zero_extendqisi2
 232              		.loc 1 152 0
 233 00a8 A4B2     		uxth	r4, r4
 234              	.LVL25:
 235              		.loc 1 149 0
 236 00aa 03F00403 		and	r3, r3, #4
 237 00ae DBB2     		uxtb	r3, r3
 238 00b0 002B     		cmp	r3, #0
 239 00b2 B3D0     		beq	.L9
 240              	.LVL26:
 241              	.L16:
 242              		.loc 1 170 0
 243 00b4 0020     		movs	r0, #0
 244 00b6 05B0     		add	sp, sp, #20
 245 00b8 F0BD     		pop	{r4, r5, r6, r7, pc}
 246              	.L18:
 247 00ba 00BF     		.align	2
 248              	.L17:
 249 00bc 00000000 		.word	rlist
 250 00c0 08000000 		.word	.LC1
 251 00c4 00000000 		.word	vtlist
 252 00c8 14000000 		.word	.LC2
 253 00cc 24000000 		.word	.LC3
 254              		.cfi_endproc
 255              	.LFE66:
 256              		.size	vexOperator, .-vexOperator
 257              		.section	.rodata.str1.4,"aMS",%progbits,1
 258              		.align	2
 259              	.LC0:
 260 0000 6175746F 		.ascii	"auton\000"
 260      6E00
 261 0006 0000     		.space	2
 262              	.LC1:
 263 0008 6F706572 		.ascii	"operator\000"
 263      61746F72 
 263      00
 264 0011 000000   		.space	3
 265              	.LC2:
 266 0014 25342E32 		.ascii	"%4.2fV   %8.1f\000"
 266      66562020 
 266      2025382E 
 266      316600
 267 0023 00       		.space	1
 268              	.LC3:
 269 0024 4C202533 		.ascii	"L %3d R %3d\000"
 269      64205220 
 269      25336400 
ARM GAS  C:\Users\Caitlin\AppData\Local\Temp\ccI5qf4i.s 			page 6


 270              		.section	.data.mConfig,"aw",%progbits
 271              		.align	2
 272              		.set	.LANCHOR1,. + 0
 273              		.type	mConfig, %object
 274              		.size	mConfig, 60
 275              	mConfig:
 276 0000 00       		.byte	0
 277 0001 02       		.byte	2
 278 0002 00       		.byte	0
 279 0003 06       		.byte	6
 280 0004 0000     		.short	0
 281 0006 01       		.byte	1
 282 0007 00       		.byte	0
 283 0008 00       		.byte	0
 284 0009 00       		.byte	0
 285 000a 0000     		.short	0
 286 000c 02       		.byte	2
 287 000d 00       		.byte	0
 288 000e 00       		.byte	0
 289 000f 00       		.byte	0
 290 0010 0000     		.short	0
 291 0012 03       		.byte	3
 292 0013 00       		.byte	0
 293 0014 00       		.byte	0
 294 0015 00       		.byte	0
 295 0016 0000     		.short	0
 296 0018 04       		.byte	4
 297 0019 00       		.byte	0
 298 001a 00       		.byte	0
 299 001b 00       		.byte	0
 300 001c 0000     		.short	0
 301 001e 05       		.byte	5
 302 001f 00       		.byte	0
 303 0020 00       		.byte	0
 304 0021 00       		.byte	0
 305 0022 0000     		.short	0
 306 0024 06       		.byte	6
 307 0025 00       		.byte	0
 308 0026 00       		.byte	0
 309 0027 00       		.byte	0
 310 0028 0000     		.short	0
 311 002a 07       		.byte	7
 312 002b 00       		.byte	0
 313 002c 00       		.byte	0
 314 002d 00       		.byte	0
 315 002e 0000     		.short	0
 316 0030 08       		.byte	8
 317 0031 00       		.byte	0
 318 0032 00       		.byte	0
 319 0033 00       		.byte	0
 320 0034 0000     		.short	0
 321 0036 09       		.byte	9
 322 0037 02       		.byte	2
 323 0038 00       		.byte	0
 324 0039 06       		.byte	6
 325 003a 0100     		.short	1
 326              		.section	.data.dConfig,"aw",%progbits
ARM GAS  C:\Users\Caitlin\AppData\Local\Temp\ccI5qf4i.s 			page 7


 327              		.align	2
 328              		.set	.LANCHOR0,. + 0
 329              		.type	dConfig, %object
 330              		.size	dConfig, 72
 331              	dConfig:
 332 0000 00       		.byte	0
 333 0001 02       		.byte	2
 334 0002 01       		.byte	1
 335 0003 00       		.space	1
 336 0004 0000     		.short	0
 337 0006 01       		.byte	1
 338 0007 02       		.byte	2
 339 0008 01       		.byte	1
 340 0009 00       		.space	1
 341 000a 0000     		.short	0
 342 000c 02       		.byte	2
 343 000d 01       		.byte	1
 344 000e 00       		.byte	0
 345 000f 00       		.space	1
 346 0010 0000     		.short	0
 347 0012 03       		.byte	3
 348 0013 01       		.byte	1
 349 0014 00       		.byte	0
 350 0015 00       		.space	1
 351 0016 0000     		.short	0
 352 0018 04       		.byte	4
 353 0019 01       		.byte	1
 354 001a 00       		.byte	0
 355 001b 00       		.space	1
 356 001c 0000     		.short	0
 357 001e 05       		.byte	5
 358 001f 01       		.byte	1
 359 0020 00       		.byte	0
 360 0021 00       		.space	1
 361 0022 0000     		.short	0
 362 0024 06       		.byte	6
 363 0025 01       		.byte	1
 364 0026 00       		.byte	0
 365 0027 00       		.space	1
 366 0028 0000     		.short	0
 367 002a 07       		.byte	7
 368 002b 01       		.byte	1
 369 002c 00       		.byte	0
 370 002d 00       		.space	1
 371 002e 0000     		.short	0
 372 0030 08       		.byte	8
 373 0031 01       		.byte	1
 374 0032 00       		.byte	0
 375 0033 00       		.space	1
 376 0034 0000     		.short	0
 377 0036 09       		.byte	9
 378 0037 01       		.byte	1
 379 0038 00       		.byte	0
 380 0039 00       		.space	1
 381 003a 0000     		.short	0
 382 003c 0A       		.byte	10
 383 003d 01       		.byte	1
ARM GAS  C:\Users\Caitlin\AppData\Local\Temp\ccI5qf4i.s 			page 8


 384 003e 00       		.byte	0
 385 003f 00       		.space	1
 386 0040 0000     		.short	0
 387 0042 0B       		.byte	11
 388 0043 01       		.byte	1
 389 0044 00       		.byte	0
 390 0045 00       		.space	1
 391 0046 0000     		.short	0
 392              		.text
 393              	.Letext0:
 394              		.file 2 "c:/program files (x86)/pros/toolchain/lib/gcc/../../arm-none-eabi/include/stdint.h"
 395              		.file 3 "../ChibiOS_2.6.2/os/ports/GCC/ARMCMx/chtypes.h"
 396              		.file 4 "../ChibiOS_2.6.2/os/kernel/include/chlists.h"
 397              		.file 5 "../ChibiOS_2.6.2/os/kernel/include/chthreads.h"
 398              		.file 6 "../ChibiOS_2.6.2/os/ports/GCC/ARMCMx/chcore_v7m.h"
 399              		.file 7 "../ChibiOS_2.6.2/os/kernel/include/chvt.h"
 400              		.file 8 "../ChibiOS_2.6.2/os/kernel/include/chschd.h"
 401              		.file 9 "../ChibiOS_2.6.2/os/kernel/include/chmtx.h"
 402              		.file 10 "../convex/cortex/fw/vexdigital.h"
 403              		.file 11 "../convex/cortex/fw/vexmotor.h"
 404              		.file 12 "../convex/cortex/fw/vexime.h"
 405              		.file 13 "../convex/cortex/fw/vexconfig.h"
 406              		.file 14 "../convex/cortex/fw/vexctl.h"
 407              		.file 15 "../ChibiOS_2.6.2/os/ports/common/ARMCMx/CMSIS/include/core_cm3.h"
 408              		.file 16 "../convex/cortex/fw/vex.h"
 409              		.file 17 "../convex/cortex/fw/vexlcd.h"
 410              		.file 18 "../convex/cortex/fw/vexspi.h"